ARM GAS  C:\Users\VIKTOR~1\AppData\Local\Temp\ccmfksX7.s 			page 1


   1              		.syntax unified
   2              		.cpu cortex-m0
   3              		.fpu softvfp
   4              		.eabi_attribute 20, 1
   5              		.eabi_attribute 21, 1
   6              		.eabi_attribute 23, 3
   7              		.eabi_attribute 24, 1
   8              		.eabi_attribute 25, 1
   9              		.eabi_attribute 26, 1
  10              		.eabi_attribute 30, 1
  11              		.eabi_attribute 34, 0
  12              		.eabi_attribute 18, 4
  13              		.thumb
  14              		.syntax unified
  15              		.file	"cyfitter_cfg.c"
  16              		.text
  17              	.Ltext0:
  18              		.cfi_sections	.debug_frame
  19              		.section	.text.cfg_write_bytes32,"ax",%progbits
  20              		.align	2
  21              		.code	16
  22              		.thumb_func
  23              		.type	cfg_write_bytes32, %function
  24              	cfg_write_bytes32:
  25              	.LFB4:
  26              		.file 1 "Generated_Source\\PSoC4\\cyfitter_cfg.c"
   1:Generated_Source\PSoC4/cyfitter_cfg.c **** 
   2:Generated_Source\PSoC4/cyfitter_cfg.c **** /*******************************************************************************
   3:Generated_Source\PSoC4/cyfitter_cfg.c **** * File Name: cyfitter_cfg.c
   4:Generated_Source\PSoC4/cyfitter_cfg.c **** * 
   5:Generated_Source\PSoC4/cyfitter_cfg.c **** * PSoC Creator  4.4
   6:Generated_Source\PSoC4/cyfitter_cfg.c **** *
   7:Generated_Source\PSoC4/cyfitter_cfg.c **** * Description:
   8:Generated_Source\PSoC4/cyfitter_cfg.c **** * This file contains device initialization code.
   9:Generated_Source\PSoC4/cyfitter_cfg.c **** * Except for the user defined sections in CyClockStartupError(), this file should not be modified.
  10:Generated_Source\PSoC4/cyfitter_cfg.c **** * This file is automatically generated by PSoC Creator.
  11:Generated_Source\PSoC4/cyfitter_cfg.c **** *
  12:Generated_Source\PSoC4/cyfitter_cfg.c **** ********************************************************************************
  13:Generated_Source\PSoC4/cyfitter_cfg.c **** * Copyright (c) 2007-2020 Cypress Semiconductor.  All rights reserved.
  14:Generated_Source\PSoC4/cyfitter_cfg.c **** * You may use this file only in accordance with the license, terms, conditions, 
  15:Generated_Source\PSoC4/cyfitter_cfg.c **** * disclaimers, and limitations in the end user license agreement accompanying 
  16:Generated_Source\PSoC4/cyfitter_cfg.c **** * the software package with which this file was provided.
  17:Generated_Source\PSoC4/cyfitter_cfg.c **** ********************************************************************************/
  18:Generated_Source\PSoC4/cyfitter_cfg.c **** 
  19:Generated_Source\PSoC4/cyfitter_cfg.c **** #include <string.h>
  20:Generated_Source\PSoC4/cyfitter_cfg.c **** #include "cytypes.h"
  21:Generated_Source\PSoC4/cyfitter_cfg.c **** #include "cydevice_trm.h"
  22:Generated_Source\PSoC4/cyfitter_cfg.c **** #include "cyfitter.h"
  23:Generated_Source\PSoC4/cyfitter_cfg.c **** #include "CyLib.h"
  24:Generated_Source\PSoC4/cyfitter_cfg.c **** #include "CyLFClk.h"
  25:Generated_Source\PSoC4/cyfitter_cfg.c **** #include "cyfitter_cfg.h"
  26:Generated_Source\PSoC4/cyfitter_cfg.c **** #include "cyapicallbacks.h"
  27:Generated_Source\PSoC4/cyfitter_cfg.c **** 
  28:Generated_Source\PSoC4/cyfitter_cfg.c **** 
  29:Generated_Source\PSoC4/cyfitter_cfg.c **** #if defined(__GNUC__) || defined(__ARMCC_VERSION)
  30:Generated_Source\PSoC4/cyfitter_cfg.c ****     #define CYPACKED 
  31:Generated_Source\PSoC4/cyfitter_cfg.c ****     #define CYPACKED_ATTR __attribute__ ((packed))
ARM GAS  C:\Users\VIKTOR~1\AppData\Local\Temp\ccmfksX7.s 			page 2


  32:Generated_Source\PSoC4/cyfitter_cfg.c ****     #define CYALIGNED __attribute__ ((aligned))
  33:Generated_Source\PSoC4/cyfitter_cfg.c ****     #define CY_CFG_UNUSED __attribute__ ((unused))
  34:Generated_Source\PSoC4/cyfitter_cfg.c ****     #ifndef CY_CFG_SECTION
  35:Generated_Source\PSoC4/cyfitter_cfg.c ****         #define CY_CFG_SECTION __attribute__ ((section(".psocinit")))
  36:Generated_Source\PSoC4/cyfitter_cfg.c ****     #endif
  37:Generated_Source\PSoC4/cyfitter_cfg.c ****     
  38:Generated_Source\PSoC4/cyfitter_cfg.c ****     #if defined(__ARMCC_VERSION)
  39:Generated_Source\PSoC4/cyfitter_cfg.c ****         #define CY_CFG_MEMORY_BARRIER() __memory_changed()
  40:Generated_Source\PSoC4/cyfitter_cfg.c ****     #else
  41:Generated_Source\PSoC4/cyfitter_cfg.c ****         #define CY_CFG_MEMORY_BARRIER() __sync_synchronize()
  42:Generated_Source\PSoC4/cyfitter_cfg.c ****     #endif
  43:Generated_Source\PSoC4/cyfitter_cfg.c ****     
  44:Generated_Source\PSoC4/cyfitter_cfg.c **** #elif defined(__ICCARM__)
  45:Generated_Source\PSoC4/cyfitter_cfg.c ****     #include <intrinsics.h>
  46:Generated_Source\PSoC4/cyfitter_cfg.c **** 
  47:Generated_Source\PSoC4/cyfitter_cfg.c ****     #define CYPACKED __packed
  48:Generated_Source\PSoC4/cyfitter_cfg.c ****     #define CYPACKED_ATTR 
  49:Generated_Source\PSoC4/cyfitter_cfg.c ****     #define CYALIGNED _Pragma("data_alignment=4")
  50:Generated_Source\PSoC4/cyfitter_cfg.c ****     #define CY_CFG_UNUSED _Pragma("diag_suppress=Pe177")
  51:Generated_Source\PSoC4/cyfitter_cfg.c ****     #define CY_CFG_SECTION _Pragma("location=\".psocinit\"")
  52:Generated_Source\PSoC4/cyfitter_cfg.c ****     
  53:Generated_Source\PSoC4/cyfitter_cfg.c ****     #define CY_CFG_MEMORY_BARRIER() __DMB()
  54:Generated_Source\PSoC4/cyfitter_cfg.c ****     
  55:Generated_Source\PSoC4/cyfitter_cfg.c **** #else
  56:Generated_Source\PSoC4/cyfitter_cfg.c ****     #error Unsupported toolchain
  57:Generated_Source\PSoC4/cyfitter_cfg.c **** #endif
  58:Generated_Source\PSoC4/cyfitter_cfg.c **** 
  59:Generated_Source\PSoC4/cyfitter_cfg.c **** #ifndef CYCODE
  60:Generated_Source\PSoC4/cyfitter_cfg.c ****     #define CYCODE
  61:Generated_Source\PSoC4/cyfitter_cfg.c **** #endif
  62:Generated_Source\PSoC4/cyfitter_cfg.c **** #ifndef CYDATA
  63:Generated_Source\PSoC4/cyfitter_cfg.c ****     #define CYDATA
  64:Generated_Source\PSoC4/cyfitter_cfg.c **** #endif
  65:Generated_Source\PSoC4/cyfitter_cfg.c **** #ifndef CYFAR
  66:Generated_Source\PSoC4/cyfitter_cfg.c ****     #define CYFAR
  67:Generated_Source\PSoC4/cyfitter_cfg.c **** #endif
  68:Generated_Source\PSoC4/cyfitter_cfg.c **** #ifndef CYXDATA
  69:Generated_Source\PSoC4/cyfitter_cfg.c ****     #define CYXDATA
  70:Generated_Source\PSoC4/cyfitter_cfg.c **** #endif
  71:Generated_Source\PSoC4/cyfitter_cfg.c **** 
  72:Generated_Source\PSoC4/cyfitter_cfg.c **** 
  73:Generated_Source\PSoC4/cyfitter_cfg.c **** CY_CFG_UNUSED
  74:Generated_Source\PSoC4/cyfitter_cfg.c **** static void CYMEMZERO(void *s, size_t n);
  75:Generated_Source\PSoC4/cyfitter_cfg.c **** CY_CFG_UNUSED
  76:Generated_Source\PSoC4/cyfitter_cfg.c **** static void CYMEMZERO(void *s, size_t n)
  77:Generated_Source\PSoC4/cyfitter_cfg.c **** {
  78:Generated_Source\PSoC4/cyfitter_cfg.c **** 	(void)memset(s, 0, n);
  79:Generated_Source\PSoC4/cyfitter_cfg.c **** }
  80:Generated_Source\PSoC4/cyfitter_cfg.c **** CY_CFG_UNUSED
  81:Generated_Source\PSoC4/cyfitter_cfg.c **** static void CYCONFIGCPY(void *dest, const void *src, size_t n);
  82:Generated_Source\PSoC4/cyfitter_cfg.c **** CY_CFG_UNUSED
  83:Generated_Source\PSoC4/cyfitter_cfg.c **** static void CYCONFIGCPY(void *dest, const void *src, size_t n)
  84:Generated_Source\PSoC4/cyfitter_cfg.c **** {
  85:Generated_Source\PSoC4/cyfitter_cfg.c **** 	(void)memcpy(dest, src, n);
  86:Generated_Source\PSoC4/cyfitter_cfg.c **** }
  87:Generated_Source\PSoC4/cyfitter_cfg.c **** CY_CFG_UNUSED
  88:Generated_Source\PSoC4/cyfitter_cfg.c **** static void CYCONFIGCPYCODE(void *dest, const void *src, size_t n);
ARM GAS  C:\Users\VIKTOR~1\AppData\Local\Temp\ccmfksX7.s 			page 3


  89:Generated_Source\PSoC4/cyfitter_cfg.c **** CY_CFG_UNUSED
  90:Generated_Source\PSoC4/cyfitter_cfg.c **** static void CYCONFIGCPYCODE(void *dest, const void *src, size_t n)
  91:Generated_Source\PSoC4/cyfitter_cfg.c **** {
  92:Generated_Source\PSoC4/cyfitter_cfg.c **** 	(void)memcpy(dest, src, n);
  93:Generated_Source\PSoC4/cyfitter_cfg.c **** }
  94:Generated_Source\PSoC4/cyfitter_cfg.c **** 
  95:Generated_Source\PSoC4/cyfitter_cfg.c **** 
  96:Generated_Source\PSoC4/cyfitter_cfg.c **** 
  97:Generated_Source\PSoC4/cyfitter_cfg.c **** 
  98:Generated_Source\PSoC4/cyfitter_cfg.c **** /* Clock startup error codes                                                   */
  99:Generated_Source\PSoC4/cyfitter_cfg.c **** #define CYCLOCKSTART_NO_ERROR    0u
 100:Generated_Source\PSoC4/cyfitter_cfg.c **** #define CYCLOCKSTART_XTAL_ERROR  1u
 101:Generated_Source\PSoC4/cyfitter_cfg.c **** #define CYCLOCKSTART_32KHZ_ERROR 2u
 102:Generated_Source\PSoC4/cyfitter_cfg.c **** #define CYCLOCKSTART_PLL_ERROR   3u
 103:Generated_Source\PSoC4/cyfitter_cfg.c **** #define CYCLOCKSTART_FLL_ERROR   4u
 104:Generated_Source\PSoC4/cyfitter_cfg.c **** #define CYCLOCKSTART_WCO_ERROR   5u
 105:Generated_Source\PSoC4/cyfitter_cfg.c **** 
 106:Generated_Source\PSoC4/cyfitter_cfg.c **** 
 107:Generated_Source\PSoC4/cyfitter_cfg.c **** #ifdef CY_NEED_CYCLOCKSTARTUPERROR
 108:Generated_Source\PSoC4/cyfitter_cfg.c **** /*******************************************************************************
 109:Generated_Source\PSoC4/cyfitter_cfg.c **** * Function Name: CyClockStartupError
 110:Generated_Source\PSoC4/cyfitter_cfg.c **** ********************************************************************************
 111:Generated_Source\PSoC4/cyfitter_cfg.c **** * Summary:
 112:Generated_Source\PSoC4/cyfitter_cfg.c **** *  If an error is encountered during clock configuration (crystal startup error,
 113:Generated_Source\PSoC4/cyfitter_cfg.c **** *  PLL lock error, etc.), the system will end up here.  Unless reimplemented by
 114:Generated_Source\PSoC4/cyfitter_cfg.c **** *  the customer, this function will stop in an infinite loop.
 115:Generated_Source\PSoC4/cyfitter_cfg.c **** *
 116:Generated_Source\PSoC4/cyfitter_cfg.c **** * Parameters:
 117:Generated_Source\PSoC4/cyfitter_cfg.c **** *   void
 118:Generated_Source\PSoC4/cyfitter_cfg.c **** *
 119:Generated_Source\PSoC4/cyfitter_cfg.c **** * Return:
 120:Generated_Source\PSoC4/cyfitter_cfg.c **** *   void
 121:Generated_Source\PSoC4/cyfitter_cfg.c **** *
 122:Generated_Source\PSoC4/cyfitter_cfg.c **** *******************************************************************************/
 123:Generated_Source\PSoC4/cyfitter_cfg.c **** CY_CFG_UNUSED
 124:Generated_Source\PSoC4/cyfitter_cfg.c **** static void CyClockStartupError(uint8 errorCode);
 125:Generated_Source\PSoC4/cyfitter_cfg.c **** CY_CFG_UNUSED
 126:Generated_Source\PSoC4/cyfitter_cfg.c **** static void CyClockStartupError(uint8 errorCode)
 127:Generated_Source\PSoC4/cyfitter_cfg.c **** {
 128:Generated_Source\PSoC4/cyfitter_cfg.c ****     /* To remove the compiler warning if errorCode not used.                */
 129:Generated_Source\PSoC4/cyfitter_cfg.c ****     errorCode = errorCode;
 130:Generated_Source\PSoC4/cyfitter_cfg.c **** 
 131:Generated_Source\PSoC4/cyfitter_cfg.c ****     /* If we have a clock startup error (bad MHz crystal, PLL lock, etc.),  */
 132:Generated_Source\PSoC4/cyfitter_cfg.c ****     /* we will end up here to allow the customer to implement something to  */
 133:Generated_Source\PSoC4/cyfitter_cfg.c ****     /* deal with the clock condition.                                       */
 134:Generated_Source\PSoC4/cyfitter_cfg.c **** 
 135:Generated_Source\PSoC4/cyfitter_cfg.c **** #ifdef CY_CFG_CLOCK_STARTUP_ERROR_CALLBACK
 136:Generated_Source\PSoC4/cyfitter_cfg.c ****     CY_CFG_Clock_Startup_ErrorCallback();
 137:Generated_Source\PSoC4/cyfitter_cfg.c **** #else
 138:Generated_Source\PSoC4/cyfitter_cfg.c ****     /*  If not using CY_CFG_CLOCK_STARTUP_ERROR_CALLBACK, place your clock startup code here. */
 139:Generated_Source\PSoC4/cyfitter_cfg.c ****     /* `#START CyClockStartupError` */
 140:Generated_Source\PSoC4/cyfitter_cfg.c **** 
 141:Generated_Source\PSoC4/cyfitter_cfg.c **** 
 142:Generated_Source\PSoC4/cyfitter_cfg.c **** 
 143:Generated_Source\PSoC4/cyfitter_cfg.c ****     /* `#END` */
 144:Generated_Source\PSoC4/cyfitter_cfg.c **** 
 145:Generated_Source\PSoC4/cyfitter_cfg.c ****     while(1) {}
ARM GAS  C:\Users\VIKTOR~1\AppData\Local\Temp\ccmfksX7.s 			page 4


 146:Generated_Source\PSoC4/cyfitter_cfg.c **** #endif /* CY_CFG_CLOCK_STARTUP_ERROR_CALLBACK */
 147:Generated_Source\PSoC4/cyfitter_cfg.c **** }
 148:Generated_Source\PSoC4/cyfitter_cfg.c **** #endif
 149:Generated_Source\PSoC4/cyfitter_cfg.c **** 
 150:Generated_Source\PSoC4/cyfitter_cfg.c **** #define CY_CFG_BASE_ADDR_COUNT 8u
 151:Generated_Source\PSoC4/cyfitter_cfg.c **** CYPACKED typedef struct
 152:Generated_Source\PSoC4/cyfitter_cfg.c **** {
 153:Generated_Source\PSoC4/cyfitter_cfg.c **** 	uint8 offset;
 154:Generated_Source\PSoC4/cyfitter_cfg.c **** 	uint8 value;
 155:Generated_Source\PSoC4/cyfitter_cfg.c **** } CYPACKED_ATTR cy_cfg_addrvalue_t;
 156:Generated_Source\PSoC4/cyfitter_cfg.c **** 
 157:Generated_Source\PSoC4/cyfitter_cfg.c **** 
 158:Generated_Source\PSoC4/cyfitter_cfg.c **** 
 159:Generated_Source\PSoC4/cyfitter_cfg.c **** /*******************************************************************************
 160:Generated_Source\PSoC4/cyfitter_cfg.c **** * Function Name: cfg_write_bytes32
 161:Generated_Source\PSoC4/cyfitter_cfg.c **** ********************************************************************************
 162:Generated_Source\PSoC4/cyfitter_cfg.c **** * Summary:
 163:Generated_Source\PSoC4/cyfitter_cfg.c **** *  This function is used for setting up the chip configuration areas that
 164:Generated_Source\PSoC4/cyfitter_cfg.c **** *  contain relatively sparse data.
 165:Generated_Source\PSoC4/cyfitter_cfg.c **** *
 166:Generated_Source\PSoC4/cyfitter_cfg.c **** * Parameters:
 167:Generated_Source\PSoC4/cyfitter_cfg.c **** *   void
 168:Generated_Source\PSoC4/cyfitter_cfg.c **** *
 169:Generated_Source\PSoC4/cyfitter_cfg.c **** * Return:
 170:Generated_Source\PSoC4/cyfitter_cfg.c **** *   void
 171:Generated_Source\PSoC4/cyfitter_cfg.c **** *
 172:Generated_Source\PSoC4/cyfitter_cfg.c **** *******************************************************************************/
 173:Generated_Source\PSoC4/cyfitter_cfg.c **** static void cfg_write_bytes32(const uint32 addr_table[], const cy_cfg_addrvalue_t data_table[]);
 174:Generated_Source\PSoC4/cyfitter_cfg.c **** static void cfg_write_bytes32(const uint32 addr_table[], const cy_cfg_addrvalue_t data_table[])
 175:Generated_Source\PSoC4/cyfitter_cfg.c **** {
  27              		.loc 1 175 0
  28              		.cfi_startproc
  29              		@ args = 0, pretend = 0, frame = 0
  30              		@ frame_needed = 0, uses_anonymous_args = 0
  31              	.LVL0:
  32 0000 F0B5     		push	{r4, r5, r6, r7, lr}
  33              		.cfi_def_cfa_offset 20
  34              		.cfi_offset 4, -20
  35              		.cfi_offset 5, -16
  36              		.cfi_offset 6, -12
  37              		.cfi_offset 7, -8
  38              		.cfi_offset 14, -4
  39              	.LVL1:
 176:Generated_Source\PSoC4/cyfitter_cfg.c **** 	/* For 32-bit little-endian architectures */
 177:Generated_Source\PSoC4/cyfitter_cfg.c **** 	uint32 i, j = 0u;
  40              		.loc 1 177 0
  41 0002 0025     		movs	r5, #0
 178:Generated_Source\PSoC4/cyfitter_cfg.c **** 	for (i = 0u; i < CY_CFG_BASE_ADDR_COUNT; i++)
  42              		.loc 1 178 0
  43 0004 0027     		movs	r7, #0
  44 0006 11E0     		b	.L2
  45              	.LVL2:
  46              	.L5:
  47              	.LBB2:
 179:Generated_Source\PSoC4/cyfitter_cfg.c **** 	{
 180:Generated_Source\PSoC4/cyfitter_cfg.c **** 		uint32 baseAddr = addr_table[i];
  48              		.loc 1 180 0
ARM GAS  C:\Users\VIKTOR~1\AppData\Local\Temp\ccmfksX7.s 			page 5


  49 0008 BB00     		lsls	r3, r7, #2
  50 000a C658     		ldr	r6, [r0, r3]
  51              	.LVL3:
 181:Generated_Source\PSoC4/cyfitter_cfg.c **** 		uint8 count = (uint8)baseAddr;
  52              		.loc 1 181 0
  53 000c F3B2     		uxtb	r3, r6
  54              	.LVL4:
 182:Generated_Source\PSoC4/cyfitter_cfg.c **** 		baseAddr &= 0xFFFFFF00u;
  55              		.loc 1 182 0
  56 000e FF22     		movs	r2, #255
  57 0010 9643     		bics	r6, r2
  58              	.LVL5:
 183:Generated_Source\PSoC4/cyfitter_cfg.c **** 		while (count != 0u)
  59              		.loc 1 183 0
  60 0012 08E0     		b	.L3
  61              	.L4:
 184:Generated_Source\PSoC4/cyfitter_cfg.c **** 		{
 185:Generated_Source\PSoC4/cyfitter_cfg.c **** 			CY_SET_REG8((void *)(baseAddr + data_table[j].offset), data_table[j].value);
  62              		.loc 1 185 0
  63 0014 6A00     		lsls	r2, r5, #1
  64 0016 8A18     		adds	r2, r1, r2
  65 0018 1478     		ldrb	r4, [r2]
  66 001a A419     		adds	r4, r4, r6
  67 001c 5278     		ldrb	r2, [r2, #1]
  68 001e 2270     		strb	r2, [r4]
 186:Generated_Source\PSoC4/cyfitter_cfg.c **** 			j++;
  69              		.loc 1 186 0
  70 0020 0135     		adds	r5, r5, #1
  71              	.LVL6:
 187:Generated_Source\PSoC4/cyfitter_cfg.c **** 			count--;
  72              		.loc 1 187 0
  73 0022 013B     		subs	r3, r3, #1
  74              	.LVL7:
  75 0024 DBB2     		uxtb	r3, r3
  76              	.LVL8:
  77              	.L3:
 183:Generated_Source\PSoC4/cyfitter_cfg.c **** 		{
  78              		.loc 1 183 0
  79 0026 002B     		cmp	r3, #0
  80 0028 F4D1     		bne	.L4
  81              	.LBE2:
 178:Generated_Source\PSoC4/cyfitter_cfg.c **** 	{
  82              		.loc 1 178 0 discriminator 2
  83 002a 0137     		adds	r7, r7, #1
  84              	.LVL9:
  85              	.L2:
 178:Generated_Source\PSoC4/cyfitter_cfg.c **** 	{
  86              		.loc 1 178 0 is_stmt 0 discriminator 1
  87 002c 072F     		cmp	r7, #7
  88 002e EBD9     		bls	.L5
 188:Generated_Source\PSoC4/cyfitter_cfg.c **** 		}
 189:Generated_Source\PSoC4/cyfitter_cfg.c **** 	}
 190:Generated_Source\PSoC4/cyfitter_cfg.c **** }
  89              		.loc 1 190 0 is_stmt 1
  90              		@ sp needed
  91              	.LVL10:
  92              	.LVL11:
ARM GAS  C:\Users\VIKTOR~1\AppData\Local\Temp\ccmfksX7.s 			page 6


  93 0030 F0BD     		pop	{r4, r5, r6, r7, pc}
  94              		.cfi_endproc
  95              	.LFE4:
  96              		.size	cfg_write_bytes32, .-cfg_write_bytes32
  97 0032 C046     		.section	.text.AnalogSetDefault,"ax",%progbits
  98              		.align	2
  99              		.code	16
 100              		.thumb_func
 101              		.type	AnalogSetDefault, %function
 102              	AnalogSetDefault:
 103              	.LFB6:
 191:Generated_Source\PSoC4/cyfitter_cfg.c **** 
 192:Generated_Source\PSoC4/cyfitter_cfg.c **** 
 193:Generated_Source\PSoC4/cyfitter_cfg.c **** /*******************************************************************************
 194:Generated_Source\PSoC4/cyfitter_cfg.c **** * Function Name: ClockSetup
 195:Generated_Source\PSoC4/cyfitter_cfg.c **** ********************************************************************************
 196:Generated_Source\PSoC4/cyfitter_cfg.c **** *
 197:Generated_Source\PSoC4/cyfitter_cfg.c **** * Summary:
 198:Generated_Source\PSoC4/cyfitter_cfg.c **** *   Performs the initialization of all of the clocks in the device based on the
 199:Generated_Source\PSoC4/cyfitter_cfg.c **** *   settings in the Clock tab of the DWR.  This includes enabling the requested
 200:Generated_Source\PSoC4/cyfitter_cfg.c **** *   clocks and setting the necessary dividers to produce the desired frequency. 
 201:Generated_Source\PSoC4/cyfitter_cfg.c **** *
 202:Generated_Source\PSoC4/cyfitter_cfg.c **** * Parameters:
 203:Generated_Source\PSoC4/cyfitter_cfg.c **** *   void
 204:Generated_Source\PSoC4/cyfitter_cfg.c **** *
 205:Generated_Source\PSoC4/cyfitter_cfg.c **** * Return:
 206:Generated_Source\PSoC4/cyfitter_cfg.c **** *   void
 207:Generated_Source\PSoC4/cyfitter_cfg.c **** *
 208:Generated_Source\PSoC4/cyfitter_cfg.c **** *******************************************************************************/
 209:Generated_Source\PSoC4/cyfitter_cfg.c **** static void ClockSetup(void);
 210:Generated_Source\PSoC4/cyfitter_cfg.c **** CY_CFG_SECTION
 211:Generated_Source\PSoC4/cyfitter_cfg.c **** static void ClockSetup(void)
 212:Generated_Source\PSoC4/cyfitter_cfg.c **** {
 213:Generated_Source\PSoC4/cyfitter_cfg.c **** 
 214:Generated_Source\PSoC4/cyfitter_cfg.c **** 	/* Set Flash Cycles based on max possible frequency in case a glitch occurs during ClockSetup(). *
 215:Generated_Source\PSoC4/cyfitter_cfg.c **** 	CY_SET_REG32((void CYXDATA *)(CYREG_CPUSS_FLASH_CTL), (0x0012u));
 216:Generated_Source\PSoC4/cyfitter_cfg.c **** 	/* Setup and trim IMO based on desired frequency. */
 217:Generated_Source\PSoC4/cyfitter_cfg.c **** 	CySysClkWriteImoFreq(48u);
 218:Generated_Source\PSoC4/cyfitter_cfg.c **** 	/* CYDEV_CLK_ILO_CONFIG Starting address: CYDEV_CLK_ILO_CONFIG */
 219:Generated_Source\PSoC4/cyfitter_cfg.c **** 	CY_SET_REG32((void *)(CYREG_CLK_ILO_CONFIG), 0x80000006u);
 220:Generated_Source\PSoC4/cyfitter_cfg.c **** 
 221:Generated_Source\PSoC4/cyfitter_cfg.c **** 
 222:Generated_Source\PSoC4/cyfitter_cfg.c **** 	/* Setup phase aligned clocks */
 223:Generated_Source\PSoC4/cyfitter_cfg.c **** 	CY_SET_REG32((void *)CYREG_PERI_DIV_16_CTL0, 0x00BB7F00u);
 224:Generated_Source\PSoC4/cyfitter_cfg.c **** 	CY_SET_REG32((void *)CYREG_PERI_DIV_CMD, 0x8000FF40u);
 225:Generated_Source\PSoC4/cyfitter_cfg.c **** 	CY_SET_REG32((void *)CYREG_PERI_DIV_16_CTL1, 0x00BB7F00u);
 226:Generated_Source\PSoC4/cyfitter_cfg.c **** 	CY_SET_REG32((void *)CYREG_PERI_DIV_CMD, 0x8000FF41u);
 227:Generated_Source\PSoC4/cyfitter_cfg.c **** 
 228:Generated_Source\PSoC4/cyfitter_cfg.c **** 	/* CYDEV_CLK_IMO_CONFIG Starting address: CYDEV_CLK_IMO_CONFIG */
 229:Generated_Source\PSoC4/cyfitter_cfg.c **** 	CY_SET_REG32((void *)(CYREG_CLK_IMO_CONFIG), 0x80000000u);
 230:Generated_Source\PSoC4/cyfitter_cfg.c **** 
 231:Generated_Source\PSoC4/cyfitter_cfg.c **** 	/* CYDEV_CLK_SELECT Starting address: CYDEV_CLK_SELECT */
 232:Generated_Source\PSoC4/cyfitter_cfg.c **** 	CY_SET_REG32((void *)(CYREG_CLK_SELECT), 0x00040000u);
 233:Generated_Source\PSoC4/cyfitter_cfg.c **** 
 234:Generated_Source\PSoC4/cyfitter_cfg.c **** 	/* CYDEV_PERI_PCLK_CTL19 Starting address: CYDEV_PERI_PCLK_CTL19 */
 235:Generated_Source\PSoC4/cyfitter_cfg.c **** 	CY_SET_REG32((void *)(CYREG_PERI_PCLK_CTL19), 0x00000040u);
 236:Generated_Source\PSoC4/cyfitter_cfg.c **** 
ARM GAS  C:\Users\VIKTOR~1\AppData\Local\Temp\ccmfksX7.s 			page 7


 237:Generated_Source\PSoC4/cyfitter_cfg.c **** 	/* CYDEV_PERI_PCLK_CTL11 Starting address: CYDEV_PERI_PCLK_CTL11 */
 238:Generated_Source\PSoC4/cyfitter_cfg.c **** 	CY_SET_REG32((void *)(CYREG_PERI_PCLK_CTL11), 0x00000041u);
 239:Generated_Source\PSoC4/cyfitter_cfg.c **** 
 240:Generated_Source\PSoC4/cyfitter_cfg.c **** 	(void)CyIntSetVector(7u, &CySysWdtIsr);
 241:Generated_Source\PSoC4/cyfitter_cfg.c **** 	CyIntEnable(7u);
 242:Generated_Source\PSoC4/cyfitter_cfg.c **** 	CY_SET_REG32((void *)(CYREG_WDT_CONFIG), 0x00000000u);
 243:Generated_Source\PSoC4/cyfitter_cfg.c **** }
 244:Generated_Source\PSoC4/cyfitter_cfg.c **** 
 245:Generated_Source\PSoC4/cyfitter_cfg.c **** 
 246:Generated_Source\PSoC4/cyfitter_cfg.c **** /* Analog API Functions */
 247:Generated_Source\PSoC4/cyfitter_cfg.c **** 
 248:Generated_Source\PSoC4/cyfitter_cfg.c **** 
 249:Generated_Source\PSoC4/cyfitter_cfg.c **** /*******************************************************************************
 250:Generated_Source\PSoC4/cyfitter_cfg.c **** * Function Name: AnalogSetDefault
 251:Generated_Source\PSoC4/cyfitter_cfg.c **** ********************************************************************************
 252:Generated_Source\PSoC4/cyfitter_cfg.c **** *
 253:Generated_Source\PSoC4/cyfitter_cfg.c **** * Summary:
 254:Generated_Source\PSoC4/cyfitter_cfg.c **** *  Sets up the analog portions of the chip to default values based on chip
 255:Generated_Source\PSoC4/cyfitter_cfg.c **** *  configuration options from the project.
 256:Generated_Source\PSoC4/cyfitter_cfg.c **** *
 257:Generated_Source\PSoC4/cyfitter_cfg.c **** * Parameters:
 258:Generated_Source\PSoC4/cyfitter_cfg.c **** *  void
 259:Generated_Source\PSoC4/cyfitter_cfg.c **** *
 260:Generated_Source\PSoC4/cyfitter_cfg.c **** * Return:
 261:Generated_Source\PSoC4/cyfitter_cfg.c **** *  void
 262:Generated_Source\PSoC4/cyfitter_cfg.c **** *
 263:Generated_Source\PSoC4/cyfitter_cfg.c **** *******************************************************************************/
 264:Generated_Source\PSoC4/cyfitter_cfg.c **** static void AnalogSetDefault(void);
 265:Generated_Source\PSoC4/cyfitter_cfg.c **** static void AnalogSetDefault(void)
 266:Generated_Source\PSoC4/cyfitter_cfg.c **** {
 104              		.loc 1 266 0
 105              		.cfi_startproc
 106              		@ args = 0, pretend = 0, frame = 0
 107              		@ frame_needed = 0, uses_anonymous_args = 0
 108              		@ link register save eliminated.
 267:Generated_Source\PSoC4/cyfitter_cfg.c **** 	CY_SET_XTND_REG32((void CYFAR *)CYREG_CTBM0_DFT_CTRL, 0x00000003u);
 109              		.loc 1 267 0
 110 0000 0323     		movs	r3, #3
 111 0002 044A     		ldr	r2, .L7
 112 0004 1360     		str	r3, [r2]
 268:Generated_Source\PSoC4/cyfitter_cfg.c **** 	CY_SET_XTND_REG32((void CYFAR *)CYREG_CTBM1_DFT_CTRL, 0x00000003u);
 113              		.loc 1 268 0
 114 0006 044A     		ldr	r2, .L7+4
 115 0008 1360     		str	r3, [r2]
 269:Generated_Source\PSoC4/cyfitter_cfg.c **** 	CY_SET_XTND_REG32((void CYFAR *)CYREG_PASS_DSAB_DSAB_CTRL, 0x00000000u);
 116              		.loc 1 269 0
 117 000a 0022     		movs	r2, #0
 118 000c 034B     		ldr	r3, .L7+8
 119 000e 1A60     		str	r2, [r3]
 270:Generated_Source\PSoC4/cyfitter_cfg.c **** }
 120              		.loc 1 270 0
 121              		@ sp needed
 122 0010 7047     		bx	lr
 123              	.L8:
 124 0012 C046     		.align	2
 125              	.L7:
 126 0014 30003040 		.word	1076887600
ARM GAS  C:\Users\VIKTOR~1\AppData\Local\Temp\ccmfksX7.s 			page 8


 127 0018 30003140 		.word	1076953136
 128 001c 000E3F40 		.word	1077874176
 129              		.cfi_endproc
 130              	.LFE6:
 131              		.size	AnalogSetDefault, .-AnalogSetDefault
 132              		.section	.text.CYMEMZERO,"ax",%progbits
 133              		.align	2
 134              		.code	16
 135              		.thumb_func
 136              		.type	CYMEMZERO, %function
 137              	CYMEMZERO:
 138              	.LFB1:
  77:Generated_Source\PSoC4/cyfitter_cfg.c **** 	(void)memset(s, 0, n);
 139              		.loc 1 77 0
 140              		.cfi_startproc
 141              		@ args = 0, pretend = 0, frame = 0
 142              		@ frame_needed = 0, uses_anonymous_args = 0
 143              	.LVL12:
 144 0000 10B5     		push	{r4, lr}
 145              		.cfi_def_cfa_offset 8
 146              		.cfi_offset 4, -8
 147              		.cfi_offset 14, -4
 148 0002 0A00     		movs	r2, r1
  78:Generated_Source\PSoC4/cyfitter_cfg.c **** }
 149              		.loc 1 78 0
 150 0004 0021     		movs	r1, #0
 151              	.LVL13:
 152 0006 FFF7FEFF 		bl	memset
 153              	.LVL14:
  79:Generated_Source\PSoC4/cyfitter_cfg.c **** CY_CFG_UNUSED
 154              		.loc 1 79 0
 155              		@ sp needed
 156 000a 10BD     		pop	{r4, pc}
 157              		.cfi_endproc
 158              	.LFE1:
 159              		.size	CYMEMZERO, .-CYMEMZERO
 160              		.section	.psocinit,"ax",%progbits
 161              		.align	2
 162              		.code	16
 163              		.thumb_func
 164              		.type	ClockSetup, %function
 165              	ClockSetup:
 166              	.LFB5:
 212:Generated_Source\PSoC4/cyfitter_cfg.c **** 
 167              		.loc 1 212 0
 168              		.cfi_startproc
 169              		@ args = 0, pretend = 0, frame = 0
 170              		@ frame_needed = 0, uses_anonymous_args = 0
 171 0000 10B5     		push	{r4, lr}
 172              		.cfi_def_cfa_offset 8
 173              		.cfi_offset 4, -8
 174              		.cfi_offset 14, -4
 215:Generated_Source\PSoC4/cyfitter_cfg.c **** 	/* Setup and trim IMO based on desired frequency. */
 175              		.loc 1 215 0
 176 0002 1222     		movs	r2, #18
 177 0004 154B     		ldr	r3, .L11
 178 0006 1A60     		str	r2, [r3]
ARM GAS  C:\Users\VIKTOR~1\AppData\Local\Temp\ccmfksX7.s 			page 9


 217:Generated_Source\PSoC4/cyfitter_cfg.c **** 	/* CYDEV_CLK_ILO_CONFIG Starting address: CYDEV_CLK_ILO_CONFIG */
 179              		.loc 1 217 0
 180 0008 3020     		movs	r0, #48
 181 000a FFF7FEFF 		bl	CySysClkWriteImoFreq
 182              	.LVL15:
 219:Generated_Source\PSoC4/cyfitter_cfg.c **** 
 183              		.loc 1 219 0
 184 000e 144A     		ldr	r2, .L11+4
 185 0010 144B     		ldr	r3, .L11+8
 186 0012 1A60     		str	r2, [r3]
 223:Generated_Source\PSoC4/cyfitter_cfg.c **** 	CY_SET_REG32((void *)CYREG_PERI_DIV_CMD, 0x8000FF40u);
 187              		.loc 1 223 0
 188 0014 144A     		ldr	r2, .L11+12
 189 0016 154B     		ldr	r3, .L11+16
 190 0018 1A60     		str	r2, [r3]
 224:Generated_Source\PSoC4/cyfitter_cfg.c **** 	CY_SET_REG32((void *)CYREG_PERI_DIV_16_CTL1, 0x00BB7F00u);
 191              		.loc 1 224 0
 192 001a 154B     		ldr	r3, .L11+20
 193 001c 1549     		ldr	r1, .L11+24
 194 001e 1960     		str	r1, [r3]
 225:Generated_Source\PSoC4/cyfitter_cfg.c **** 	CY_SET_REG32((void *)CYREG_PERI_DIV_CMD, 0x8000FF41u);
 195              		.loc 1 225 0
 196 0020 1549     		ldr	r1, .L11+28
 197 0022 0A60     		str	r2, [r1]
 226:Generated_Source\PSoC4/cyfitter_cfg.c **** 
 198              		.loc 1 226 0
 199 0024 154A     		ldr	r2, .L11+32
 200 0026 1A60     		str	r2, [r3]
 229:Generated_Source\PSoC4/cyfitter_cfg.c **** 
 201              		.loc 1 229 0
 202 0028 8022     		movs	r2, #128
 203 002a 1206     		lsls	r2, r2, #24
 204 002c 144B     		ldr	r3, .L11+36
 205 002e 1A60     		str	r2, [r3]
 232:Generated_Source\PSoC4/cyfitter_cfg.c **** 
 206              		.loc 1 232 0
 207 0030 8022     		movs	r2, #128
 208 0032 D202     		lsls	r2, r2, #11
 209 0034 134B     		ldr	r3, .L11+40
 210 0036 1A60     		str	r2, [r3]
 235:Generated_Source\PSoC4/cyfitter_cfg.c **** 
 211              		.loc 1 235 0
 212 0038 4022     		movs	r2, #64
 213 003a 134B     		ldr	r3, .L11+44
 214 003c 1A60     		str	r2, [r3]
 238:Generated_Source\PSoC4/cyfitter_cfg.c **** 
 215              		.loc 1 238 0
 216 003e 0132     		adds	r2, r2, #1
 217 0040 124B     		ldr	r3, .L11+48
 218 0042 1A60     		str	r2, [r3]
 240:Generated_Source\PSoC4/cyfitter_cfg.c **** 	CyIntEnable(7u);
 219              		.loc 1 240 0
 220 0044 1249     		ldr	r1, .L11+52
 221 0046 0720     		movs	r0, #7
 222 0048 FFF7FEFF 		bl	CyIntSetVector
 223              	.LVL16:
 241:Generated_Source\PSoC4/cyfitter_cfg.c **** 	CY_SET_REG32((void *)(CYREG_WDT_CONFIG), 0x00000000u);
ARM GAS  C:\Users\VIKTOR~1\AppData\Local\Temp\ccmfksX7.s 			page 10


 224              		.loc 1 241 0
 225 004c 0720     		movs	r0, #7
 226 004e FFF7FEFF 		bl	CyIntEnable
 227              	.LVL17:
 242:Generated_Source\PSoC4/cyfitter_cfg.c **** }
 228              		.loc 1 242 0
 229 0052 0022     		movs	r2, #0
 230 0054 0F4B     		ldr	r3, .L11+56
 231 0056 1A60     		str	r2, [r3]
 243:Generated_Source\PSoC4/cyfitter_cfg.c **** 
 232              		.loc 1 243 0
 233              		@ sp needed
 234 0058 10BD     		pop	{r4, pc}
 235              	.L12:
 236 005a C046     		.align	2
 237              	.L11:
 238 005c 30001040 		.word	1074790448
 239 0060 06000080 		.word	-2147483642
 240 0064 04010B40 		.word	1074462980
 241 0068 007FBB00 		.word	12287744
 242 006c 00030140 		.word	1073808128
 243 0070 00000140 		.word	1073807360
 244 0074 40FF0080 		.word	-2147418304
 245 0078 04030140 		.word	1073808132
 246 007c 41FF0080 		.word	-2147418303
 247 0080 08010B40 		.word	1074462984
 248 0084 00010B40 		.word	1074462976
 249 0088 4C010140 		.word	1073807692
 250 008c 2C010140 		.word	1073807660
 251 0090 00000000 		.word	CySysWdtIsr
 252 0094 0C020B40 		.word	1074463244
 253              		.cfi_endproc
 254              	.LFE5:
 255              		.size	ClockSetup, .-ClockSetup
 256              		.align	2
 257              		.global	cyfitter_cfg
 258              		.code	16
 259              		.thumb_func
 260              		.type	cyfitter_cfg, %function
 261              	cyfitter_cfg:
 262              	.LFB7:
 271:Generated_Source\PSoC4/cyfitter_cfg.c **** 
 272:Generated_Source\PSoC4/cyfitter_cfg.c **** 
 273:Generated_Source\PSoC4/cyfitter_cfg.c **** 
 274:Generated_Source\PSoC4/cyfitter_cfg.c **** 
 275:Generated_Source\PSoC4/cyfitter_cfg.c **** /*******************************************************************************
 276:Generated_Source\PSoC4/cyfitter_cfg.c **** * Function Name: cyfitter_cfg
 277:Generated_Source\PSoC4/cyfitter_cfg.c **** ********************************************************************************
 278:Generated_Source\PSoC4/cyfitter_cfg.c **** * Summary:
 279:Generated_Source\PSoC4/cyfitter_cfg.c **** *  This function is called by the start-up code for the selected device. It
 280:Generated_Source\PSoC4/cyfitter_cfg.c **** *  performs all of the necessary device configuration based on the design
 281:Generated_Source\PSoC4/cyfitter_cfg.c **** *  settings.  This includes settings from the Design Wide Resources (DWR) such
 282:Generated_Source\PSoC4/cyfitter_cfg.c **** *  as Clocks and Pins as well as any component configuration that is necessary.
 283:Generated_Source\PSoC4/cyfitter_cfg.c **** *
 284:Generated_Source\PSoC4/cyfitter_cfg.c **** * Parameters:
 285:Generated_Source\PSoC4/cyfitter_cfg.c **** *   void
 286:Generated_Source\PSoC4/cyfitter_cfg.c **** *
ARM GAS  C:\Users\VIKTOR~1\AppData\Local\Temp\ccmfksX7.s 			page 11


 287:Generated_Source\PSoC4/cyfitter_cfg.c **** * Return:
 288:Generated_Source\PSoC4/cyfitter_cfg.c **** *   void
 289:Generated_Source\PSoC4/cyfitter_cfg.c **** *
 290:Generated_Source\PSoC4/cyfitter_cfg.c **** *******************************************************************************/
 291:Generated_Source\PSoC4/cyfitter_cfg.c **** CY_CFG_SECTION
 292:Generated_Source\PSoC4/cyfitter_cfg.c **** void cyfitter_cfg(void)
 293:Generated_Source\PSoC4/cyfitter_cfg.c **** {
 263              		.loc 1 293 0
 264              		.cfi_startproc
 265              		@ args = 0, pretend = 0, frame = 0
 266              		@ frame_needed = 0, uses_anonymous_args = 0
 267 0098 10B5     		push	{r4, lr}
 268              		.cfi_def_cfa_offset 8
 269              		.cfi_offset 4, -8
 270              		.cfi_offset 14, -4
 294:Generated_Source\PSoC4/cyfitter_cfg.c **** 	/* Disable interrupts by default. Let user enable if/when they want. */
 295:Generated_Source\PSoC4/cyfitter_cfg.c **** 	CyGlobalIntDisable;
 271              		.loc 1 295 0
 272              		.syntax divided
 273              	@ 295 "Generated_Source\PSoC4\cyfitter_cfg.c" 1
 274 009a 72B6     		CPSID   i
 275              	@ 0 "" 2
 276              	.LVL18:
 277              		.thumb
 278              		.syntax unified
 279              	.LBB3:
 296:Generated_Source\PSoC4/cyfitter_cfg.c **** 
 297:Generated_Source\PSoC4/cyfitter_cfg.c **** 	{
 298:Generated_Source\PSoC4/cyfitter_cfg.c **** 		static const uint32 CYCODE cy_cfg_addr_table[] = {
 299:Generated_Source\PSoC4/cyfitter_cfg.c **** 			0x400F0002u, /* Base address: 0x400F0000 Count: 2 */
 300:Generated_Source\PSoC4/cyfitter_cfg.c **** 			0x400F305Cu, /* Base address: 0x400F3000 Count: 92 */
 301:Generated_Source\PSoC4/cyfitter_cfg.c **** 			0x400F3133u, /* Base address: 0x400F3100 Count: 51 */
 302:Generated_Source\PSoC4/cyfitter_cfg.c **** 			0x400F3237u, /* Base address: 0x400F3200 Count: 55 */
 303:Generated_Source\PSoC4/cyfitter_cfg.c **** 			0x400F3340u, /* Base address: 0x400F3300 Count: 64 */
 304:Generated_Source\PSoC4/cyfitter_cfg.c **** 			0x400F420Bu, /* Base address: 0x400F4200 Count: 11 */
 305:Generated_Source\PSoC4/cyfitter_cfg.c **** 			0x400F4306u, /* Base address: 0x400F4300 Count: 6 */
 306:Generated_Source\PSoC4/cyfitter_cfg.c **** 			0x400F6002u, /* Base address: 0x400F6000 Count: 2 */
 307:Generated_Source\PSoC4/cyfitter_cfg.c **** 		};
 308:Generated_Source\PSoC4/cyfitter_cfg.c **** 
 309:Generated_Source\PSoC4/cyfitter_cfg.c **** 		static const cy_cfg_addrvalue_t CYCODE cy_cfg_data_table[] = {
 310:Generated_Source\PSoC4/cyfitter_cfg.c **** 			{0x82u, 0x6Fu},
 311:Generated_Source\PSoC4/cyfitter_cfg.c **** 			{0x83u, 0x0Fu},
 312:Generated_Source\PSoC4/cyfitter_cfg.c **** 			{0x00u, 0xCCu},
 313:Generated_Source\PSoC4/cyfitter_cfg.c **** 			{0x01u, 0x30u},
 314:Generated_Source\PSoC4/cyfitter_cfg.c **** 			{0x02u, 0x21u},
 315:Generated_Source\PSoC4/cyfitter_cfg.c **** 			{0x03u, 0xC9u},
 316:Generated_Source\PSoC4/cyfitter_cfg.c **** 			{0x04u, 0xCCu},
 317:Generated_Source\PSoC4/cyfitter_cfg.c **** 			{0x06u, 0x12u},
 318:Generated_Source\PSoC4/cyfitter_cfg.c **** 			{0x0Bu, 0x0Fu},
 319:Generated_Source\PSoC4/cyfitter_cfg.c **** 			{0x0Cu, 0x08u},
 320:Generated_Source\PSoC4/cyfitter_cfg.c **** 			{0x0Du, 0xCFu},
 321:Generated_Source\PSoC4/cyfitter_cfg.c **** 			{0x0Eu, 0xF1u},
 322:Generated_Source\PSoC4/cyfitter_cfg.c **** 			{0x0Fu, 0x30u},
 323:Generated_Source\PSoC4/cyfitter_cfg.c **** 			{0x10u, 0x80u},
 324:Generated_Source\PSoC4/cyfitter_cfg.c **** 			{0x12u, 0x1Fu},
 325:Generated_Source\PSoC4/cyfitter_cfg.c **** 			{0x14u, 0x77u},
 326:Generated_Source\PSoC4/cyfitter_cfg.c **** 			{0x18u, 0xBBu},
ARM GAS  C:\Users\VIKTOR~1\AppData\Local\Temp\ccmfksX7.s 			page 12


 327:Generated_Source\PSoC4/cyfitter_cfg.c **** 			{0x19u, 0xFDu},
 328:Generated_Source\PSoC4/cyfitter_cfg.c **** 			{0x1Au, 0x44u},
 329:Generated_Source\PSoC4/cyfitter_cfg.c **** 			{0x1Bu, 0x02u},
 330:Generated_Source\PSoC4/cyfitter_cfg.c **** 			{0x25u, 0x73u},
 331:Generated_Source\PSoC4/cyfitter_cfg.c **** 			{0x29u, 0x9Eu},
 332:Generated_Source\PSoC4/cyfitter_cfg.c **** 			{0x2Bu, 0x60u},
 333:Generated_Source\PSoC4/cyfitter_cfg.c **** 			{0x2Du, 0x94u},
 334:Generated_Source\PSoC4/cyfitter_cfg.c **** 			{0x2Fu, 0x60u},
 335:Generated_Source\PSoC4/cyfitter_cfg.c **** 			{0x30u, 0xF0u},
 336:Generated_Source\PSoC4/cyfitter_cfg.c **** 			{0x34u, 0x0Fu},
 337:Generated_Source\PSoC4/cyfitter_cfg.c **** 			{0x35u, 0xFFu},
 338:Generated_Source\PSoC4/cyfitter_cfg.c **** 			{0x3Fu, 0x10u},
 339:Generated_Source\PSoC4/cyfitter_cfg.c **** 			{0x58u, 0x04u},
 340:Generated_Source\PSoC4/cyfitter_cfg.c **** 			{0x59u, 0x04u},
 341:Generated_Source\PSoC4/cyfitter_cfg.c **** 			{0x5Bu, 0x04u},
 342:Generated_Source\PSoC4/cyfitter_cfg.c **** 			{0x5Fu, 0x01u},
 343:Generated_Source\PSoC4/cyfitter_cfg.c **** 			{0x80u, 0xC6u},
 344:Generated_Source\PSoC4/cyfitter_cfg.c **** 			{0x82u, 0x30u},
 345:Generated_Source\PSoC4/cyfitter_cfg.c **** 			{0x83u, 0x10u},
 346:Generated_Source\PSoC4/cyfitter_cfg.c **** 			{0x84u, 0xA6u},
 347:Generated_Source\PSoC4/cyfitter_cfg.c **** 			{0x86u, 0x50u},
 348:Generated_Source\PSoC4/cyfitter_cfg.c **** 			{0x88u, 0xF5u},
 349:Generated_Source\PSoC4/cyfitter_cfg.c **** 			{0x89u, 0x10u},
 350:Generated_Source\PSoC4/cyfitter_cfg.c **** 			{0x8Cu, 0x08u},
 351:Generated_Source\PSoC4/cyfitter_cfg.c **** 			{0x8Du, 0x04u},
 352:Generated_Source\PSoC4/cyfitter_cfg.c **** 			{0x8Fu, 0x08u},
 353:Generated_Source\PSoC4/cyfitter_cfg.c **** 			{0x90u, 0x50u},
 354:Generated_Source\PSoC4/cyfitter_cfg.c **** 			{0x92u, 0xA0u},
 355:Generated_Source\PSoC4/cyfitter_cfg.c **** 			{0x93u, 0x13u},
 356:Generated_Source\PSoC4/cyfitter_cfg.c **** 			{0x94u, 0x7Bu},
 357:Generated_Source\PSoC4/cyfitter_cfg.c **** 			{0x95u, 0x06u},
 358:Generated_Source\PSoC4/cyfitter_cfg.c **** 			{0x98u, 0x08u},
 359:Generated_Source\PSoC4/cyfitter_cfg.c **** 			{0x99u, 0x0Cu},
 360:Generated_Source\PSoC4/cyfitter_cfg.c **** 			{0x9Bu, 0x02u},
 361:Generated_Source\PSoC4/cyfitter_cfg.c **** 			{0x9Du, 0x0Cu},
 362:Generated_Source\PSoC4/cyfitter_cfg.c **** 			{0xA0u, 0x30u},
 363:Generated_Source\PSoC4/cyfitter_cfg.c **** 			{0xA1u, 0x0Eu},
 364:Generated_Source\PSoC4/cyfitter_cfg.c **** 			{0xA2u, 0xC0u},
 365:Generated_Source\PSoC4/cyfitter_cfg.c **** 			{0xA9u, 0x0Au},
 366:Generated_Source\PSoC4/cyfitter_cfg.c **** 			{0xABu, 0x04u},
 367:Generated_Source\PSoC4/cyfitter_cfg.c **** 			{0xB2u, 0x07u},
 368:Generated_Source\PSoC4/cyfitter_cfg.c **** 			{0xB3u, 0x10u},
 369:Generated_Source\PSoC4/cyfitter_cfg.c **** 			{0xB4u, 0xF0u},
 370:Generated_Source\PSoC4/cyfitter_cfg.c **** 			{0xB5u, 0x01u},
 371:Generated_Source\PSoC4/cyfitter_cfg.c **** 			{0xB6u, 0x08u},
 372:Generated_Source\PSoC4/cyfitter_cfg.c **** 			{0xB7u, 0x0Eu},
 373:Generated_Source\PSoC4/cyfitter_cfg.c **** 			{0xB8u, 0x88u},
 374:Generated_Source\PSoC4/cyfitter_cfg.c **** 			{0xBEu, 0x40u},
 375:Generated_Source\PSoC4/cyfitter_cfg.c **** 			{0xBFu, 0x04u},
 376:Generated_Source\PSoC4/cyfitter_cfg.c **** 			{0xC0u, 0x21u},
 377:Generated_Source\PSoC4/cyfitter_cfg.c **** 			{0xC1u, 0x06u},
 378:Generated_Source\PSoC4/cyfitter_cfg.c **** 			{0xC5u, 0x42u},
 379:Generated_Source\PSoC4/cyfitter_cfg.c **** 			{0xC6u, 0xC0u},
 380:Generated_Source\PSoC4/cyfitter_cfg.c **** 			{0xC7u, 0x3Eu},
 381:Generated_Source\PSoC4/cyfitter_cfg.c **** 			{0xC8u, 0x3Bu},
 382:Generated_Source\PSoC4/cyfitter_cfg.c **** 			{0xC9u, 0xFFu},
 383:Generated_Source\PSoC4/cyfitter_cfg.c **** 			{0xCAu, 0xFFu},
ARM GAS  C:\Users\VIKTOR~1\AppData\Local\Temp\ccmfksX7.s 			page 13


 384:Generated_Source\PSoC4/cyfitter_cfg.c **** 			{0xCBu, 0xFFu},
 385:Generated_Source\PSoC4/cyfitter_cfg.c **** 			{0xCDu, 0xA0u},
 386:Generated_Source\PSoC4/cyfitter_cfg.c **** 			{0xCFu, 0x01u},
 387:Generated_Source\PSoC4/cyfitter_cfg.c **** 			{0xD0u, 0x18u},
 388:Generated_Source\PSoC4/cyfitter_cfg.c **** 			{0xD2u, 0x80u},
 389:Generated_Source\PSoC4/cyfitter_cfg.c **** 			{0xD8u, 0x04u},
 390:Generated_Source\PSoC4/cyfitter_cfg.c **** 			{0xD9u, 0x04u},
 391:Generated_Source\PSoC4/cyfitter_cfg.c **** 			{0xDAu, 0x04u},
 392:Generated_Source\PSoC4/cyfitter_cfg.c **** 			{0xDBu, 0x04u},
 393:Generated_Source\PSoC4/cyfitter_cfg.c **** 			{0xDFu, 0x01u},
 394:Generated_Source\PSoC4/cyfitter_cfg.c **** 			{0xE0u, 0x40u},
 395:Generated_Source\PSoC4/cyfitter_cfg.c **** 			{0xE2u, 0x80u},
 396:Generated_Source\PSoC4/cyfitter_cfg.c **** 			{0xE4u, 0x40u},
 397:Generated_Source\PSoC4/cyfitter_cfg.c **** 			{0xE5u, 0x40u},
 398:Generated_Source\PSoC4/cyfitter_cfg.c **** 			{0xE6u, 0x80u},
 399:Generated_Source\PSoC4/cyfitter_cfg.c **** 			{0xE8u, 0x40u},
 400:Generated_Source\PSoC4/cyfitter_cfg.c **** 			{0xEAu, 0x80u},
 401:Generated_Source\PSoC4/cyfitter_cfg.c **** 			{0xECu, 0x40u},
 402:Generated_Source\PSoC4/cyfitter_cfg.c **** 			{0xEDu, 0x20u},
 403:Generated_Source\PSoC4/cyfitter_cfg.c **** 			{0xEEu, 0x80u},
 404:Generated_Source\PSoC4/cyfitter_cfg.c **** 			{0x01u, 0x8Au},
 405:Generated_Source\PSoC4/cyfitter_cfg.c **** 			{0x04u, 0x08u},
 406:Generated_Source\PSoC4/cyfitter_cfg.c **** 			{0x05u, 0x1Au},
 407:Generated_Source\PSoC4/cyfitter_cfg.c **** 			{0x06u, 0x02u},
 408:Generated_Source\PSoC4/cyfitter_cfg.c **** 			{0x08u, 0x10u},
 409:Generated_Source\PSoC4/cyfitter_cfg.c **** 			{0x09u, 0x08u},
 410:Generated_Source\PSoC4/cyfitter_cfg.c **** 			{0x0Au, 0x40u},
 411:Generated_Source\PSoC4/cyfitter_cfg.c **** 			{0x0Du, 0x01u},
 412:Generated_Source\PSoC4/cyfitter_cfg.c **** 			{0x0Eu, 0x60u},
 413:Generated_Source\PSoC4/cyfitter_cfg.c **** 			{0x0Fu, 0x08u},
 414:Generated_Source\PSoC4/cyfitter_cfg.c **** 			{0x16u, 0x80u},
 415:Generated_Source\PSoC4/cyfitter_cfg.c **** 			{0x18u, 0x88u},
 416:Generated_Source\PSoC4/cyfitter_cfg.c **** 			{0x19u, 0x22u},
 417:Generated_Source\PSoC4/cyfitter_cfg.c **** 			{0x1Du, 0x9Cu},
 418:Generated_Source\PSoC4/cyfitter_cfg.c **** 			{0x1Eu, 0x20u},
 419:Generated_Source\PSoC4/cyfitter_cfg.c **** 			{0x20u, 0x04u},
 420:Generated_Source\PSoC4/cyfitter_cfg.c **** 			{0x25u, 0x10u},
 421:Generated_Source\PSoC4/cyfitter_cfg.c **** 			{0x27u, 0x22u},
 422:Generated_Source\PSoC4/cyfitter_cfg.c **** 			{0x29u, 0xA4u},
 423:Generated_Source\PSoC4/cyfitter_cfg.c **** 			{0x2Au, 0x80u},
 424:Generated_Source\PSoC4/cyfitter_cfg.c **** 			{0x2Du, 0x22u},
 425:Generated_Source\PSoC4/cyfitter_cfg.c **** 			{0x30u, 0x10u},
 426:Generated_Source\PSoC4/cyfitter_cfg.c **** 			{0x31u, 0x10u},
 427:Generated_Source\PSoC4/cyfitter_cfg.c **** 			{0x35u, 0x94u},
 428:Generated_Source\PSoC4/cyfitter_cfg.c **** 			{0x37u, 0x02u},
 429:Generated_Source\PSoC4/cyfitter_cfg.c **** 			{0x38u, 0x80u},
 430:Generated_Source\PSoC4/cyfitter_cfg.c **** 			{0x39u, 0x02u},
 431:Generated_Source\PSoC4/cyfitter_cfg.c **** 			{0x3Bu, 0x10u},
 432:Generated_Source\PSoC4/cyfitter_cfg.c **** 			{0x3Cu, 0x02u},
 433:Generated_Source\PSoC4/cyfitter_cfg.c **** 			{0x3Du, 0x20u},
 434:Generated_Source\PSoC4/cyfitter_cfg.c **** 			{0x3Eu, 0x40u},
 435:Generated_Source\PSoC4/cyfitter_cfg.c **** 			{0x45u, 0x80u},
 436:Generated_Source\PSoC4/cyfitter_cfg.c **** 			{0x47u, 0x20u},
 437:Generated_Source\PSoC4/cyfitter_cfg.c **** 			{0x4Eu, 0x80u},
 438:Generated_Source\PSoC4/cyfitter_cfg.c **** 			{0x4Fu, 0x1Au},
 439:Generated_Source\PSoC4/cyfitter_cfg.c **** 			{0x55u, 0x01u},
 440:Generated_Source\PSoC4/cyfitter_cfg.c **** 			{0x56u, 0x1Au},
ARM GAS  C:\Users\VIKTOR~1\AppData\Local\Temp\ccmfksX7.s 			page 14


 441:Generated_Source\PSoC4/cyfitter_cfg.c **** 			{0x69u, 0xA0u},
 442:Generated_Source\PSoC4/cyfitter_cfg.c **** 			{0x6Au, 0x04u},
 443:Generated_Source\PSoC4/cyfitter_cfg.c **** 			{0x74u, 0x01u},
 444:Generated_Source\PSoC4/cyfitter_cfg.c **** 			{0x81u, 0x40u},
 445:Generated_Source\PSoC4/cyfitter_cfg.c **** 			{0x8Au, 0x04u},
 446:Generated_Source\PSoC4/cyfitter_cfg.c **** 			{0xC0u, 0xFDu},
 447:Generated_Source\PSoC4/cyfitter_cfg.c **** 			{0xC2u, 0x7Eu},
 448:Generated_Source\PSoC4/cyfitter_cfg.c **** 			{0xC4u, 0x10u},
 449:Generated_Source\PSoC4/cyfitter_cfg.c **** 			{0xCAu, 0xAEu},
 450:Generated_Source\PSoC4/cyfitter_cfg.c **** 			{0xCCu, 0xF4u},
 451:Generated_Source\PSoC4/cyfitter_cfg.c **** 			{0xCEu, 0xBDu},
 452:Generated_Source\PSoC4/cyfitter_cfg.c **** 			{0xD0u, 0x30u},
 453:Generated_Source\PSoC4/cyfitter_cfg.c **** 			{0xD2u, 0x20u},
 454:Generated_Source\PSoC4/cyfitter_cfg.c **** 			{0xE0u, 0x01u},
 455:Generated_Source\PSoC4/cyfitter_cfg.c **** 			{0x03u, 0x02u},
 456:Generated_Source\PSoC4/cyfitter_cfg.c **** 			{0x04u, 0x01u},
 457:Generated_Source\PSoC4/cyfitter_cfg.c **** 			{0x07u, 0x01u},
 458:Generated_Source\PSoC4/cyfitter_cfg.c **** 			{0x0Eu, 0x02u},
 459:Generated_Source\PSoC4/cyfitter_cfg.c **** 			{0x1Au, 0x01u},
 460:Generated_Source\PSoC4/cyfitter_cfg.c **** 			{0x1Eu, 0x04u},
 461:Generated_Source\PSoC4/cyfitter_cfg.c **** 			{0x1Fu, 0x04u},
 462:Generated_Source\PSoC4/cyfitter_cfg.c **** 			{0x25u, 0x04u},
 463:Generated_Source\PSoC4/cyfitter_cfg.c **** 			{0x29u, 0x02u},
 464:Generated_Source\PSoC4/cyfitter_cfg.c **** 			{0x30u, 0x01u},
 465:Generated_Source\PSoC4/cyfitter_cfg.c **** 			{0x32u, 0x02u},
 466:Generated_Source\PSoC4/cyfitter_cfg.c **** 			{0x33u, 0x01u},
 467:Generated_Source\PSoC4/cyfitter_cfg.c **** 			{0x34u, 0x04u},
 468:Generated_Source\PSoC4/cyfitter_cfg.c **** 			{0x35u, 0x02u},
 469:Generated_Source\PSoC4/cyfitter_cfg.c **** 			{0x37u, 0x04u},
 470:Generated_Source\PSoC4/cyfitter_cfg.c **** 			{0x3Eu, 0x01u},
 471:Generated_Source\PSoC4/cyfitter_cfg.c **** 			{0x3Fu, 0x50u},
 472:Generated_Source\PSoC4/cyfitter_cfg.c **** 			{0x54u, 0x0Fu},
 473:Generated_Source\PSoC4/cyfitter_cfg.c **** 			{0x58u, 0x04u},
 474:Generated_Source\PSoC4/cyfitter_cfg.c **** 			{0x59u, 0x04u},
 475:Generated_Source\PSoC4/cyfitter_cfg.c **** 			{0x5Bu, 0x04u},
 476:Generated_Source\PSoC4/cyfitter_cfg.c **** 			{0x5Fu, 0x05u},
 477:Generated_Source\PSoC4/cyfitter_cfg.c **** 			{0x87u, 0x20u},
 478:Generated_Source\PSoC4/cyfitter_cfg.c **** 			{0x8Bu, 0x1Eu},
 479:Generated_Source\PSoC4/cyfitter_cfg.c **** 			{0x8Eu, 0x01u},
 480:Generated_Source\PSoC4/cyfitter_cfg.c **** 			{0x8Fu, 0x10u},
 481:Generated_Source\PSoC4/cyfitter_cfg.c **** 			{0x90u, 0x04u},
 482:Generated_Source\PSoC4/cyfitter_cfg.c **** 			{0x91u, 0x10u},
 483:Generated_Source\PSoC4/cyfitter_cfg.c **** 			{0x94u, 0x01u},
 484:Generated_Source\PSoC4/cyfitter_cfg.c **** 			{0x95u, 0x1Cu},
 485:Generated_Source\PSoC4/cyfitter_cfg.c **** 			{0x98u, 0x01u},
 486:Generated_Source\PSoC4/cyfitter_cfg.c **** 			{0x99u, 0x02u},
 487:Generated_Source\PSoC4/cyfitter_cfg.c **** 			{0x9Fu, 0x01u},
 488:Generated_Source\PSoC4/cyfitter_cfg.c **** 			{0xA1u, 0x04u},
 489:Generated_Source\PSoC4/cyfitter_cfg.c **** 			{0xA3u, 0x08u},
 490:Generated_Source\PSoC4/cyfitter_cfg.c **** 			{0xA5u, 0x1Cu},
 491:Generated_Source\PSoC4/cyfitter_cfg.c **** 			{0xA8u, 0x04u},
 492:Generated_Source\PSoC4/cyfitter_cfg.c **** 			{0xA9u, 0x04u},
 493:Generated_Source\PSoC4/cyfitter_cfg.c **** 			{0xABu, 0x08u},
 494:Generated_Source\PSoC4/cyfitter_cfg.c **** 			{0xAEu, 0x02u},
 495:Generated_Source\PSoC4/cyfitter_cfg.c **** 			{0xAFu, 0x02u},
 496:Generated_Source\PSoC4/cyfitter_cfg.c **** 			{0xB0u, 0x04u},
 497:Generated_Source\PSoC4/cyfitter_cfg.c **** 			{0xB1u, 0x01u},
ARM GAS  C:\Users\VIKTOR~1\AppData\Local\Temp\ccmfksX7.s 			page 15


 498:Generated_Source\PSoC4/cyfitter_cfg.c **** 			{0xB3u, 0x3Cu},
 499:Generated_Source\PSoC4/cyfitter_cfg.c **** 			{0xB4u, 0x01u},
 500:Generated_Source\PSoC4/cyfitter_cfg.c **** 			{0xB6u, 0x02u},
 501:Generated_Source\PSoC4/cyfitter_cfg.c **** 			{0xB7u, 0x02u},
 502:Generated_Source\PSoC4/cyfitter_cfg.c **** 			{0xB8u, 0x02u},
 503:Generated_Source\PSoC4/cyfitter_cfg.c **** 			{0xBEu, 0x10u},
 504:Generated_Source\PSoC4/cyfitter_cfg.c **** 			{0xBFu, 0x40u},
 505:Generated_Source\PSoC4/cyfitter_cfg.c **** 			{0xD4u, 0x0Fu},
 506:Generated_Source\PSoC4/cyfitter_cfg.c **** 			{0xD8u, 0x04u},
 507:Generated_Source\PSoC4/cyfitter_cfg.c **** 			{0xD9u, 0x04u},
 508:Generated_Source\PSoC4/cyfitter_cfg.c **** 			{0xDBu, 0x04u},
 509:Generated_Source\PSoC4/cyfitter_cfg.c **** 			{0xDFu, 0x01u},
 510:Generated_Source\PSoC4/cyfitter_cfg.c **** 			{0x03u, 0x02u},
 511:Generated_Source\PSoC4/cyfitter_cfg.c **** 			{0x06u, 0x02u},
 512:Generated_Source\PSoC4/cyfitter_cfg.c **** 			{0x07u, 0x20u},
 513:Generated_Source\PSoC4/cyfitter_cfg.c **** 			{0x09u, 0x21u},
 514:Generated_Source\PSoC4/cyfitter_cfg.c **** 			{0x0Bu, 0x10u},
 515:Generated_Source\PSoC4/cyfitter_cfg.c **** 			{0x0Fu, 0x0Au},
 516:Generated_Source\PSoC4/cyfitter_cfg.c **** 			{0x10u, 0x01u},
 517:Generated_Source\PSoC4/cyfitter_cfg.c **** 			{0x11u, 0x10u},
 518:Generated_Source\PSoC4/cyfitter_cfg.c **** 			{0x19u, 0x90u},
 519:Generated_Source\PSoC4/cyfitter_cfg.c **** 			{0x1Bu, 0x42u},
 520:Generated_Source\PSoC4/cyfitter_cfg.c **** 			{0x1Du, 0x20u},
 521:Generated_Source\PSoC4/cyfitter_cfg.c **** 			{0x1Fu, 0x29u},
 522:Generated_Source\PSoC4/cyfitter_cfg.c **** 			{0x21u, 0x01u},
 523:Generated_Source\PSoC4/cyfitter_cfg.c **** 			{0x22u, 0x41u},
 524:Generated_Source\PSoC4/cyfitter_cfg.c **** 			{0x23u, 0x10u},
 525:Generated_Source\PSoC4/cyfitter_cfg.c **** 			{0x26u, 0x40u},
 526:Generated_Source\PSoC4/cyfitter_cfg.c **** 			{0x27u, 0x28u},
 527:Generated_Source\PSoC4/cyfitter_cfg.c **** 			{0x28u, 0x10u},
 528:Generated_Source\PSoC4/cyfitter_cfg.c **** 			{0x29u, 0x20u},
 529:Generated_Source\PSoC4/cyfitter_cfg.c **** 			{0x2Bu, 0x42u},
 530:Generated_Source\PSoC4/cyfitter_cfg.c **** 			{0x2Fu, 0x28u},
 531:Generated_Source\PSoC4/cyfitter_cfg.c **** 			{0x31u, 0x24u},
 532:Generated_Source\PSoC4/cyfitter_cfg.c **** 			{0x32u, 0x01u},
 533:Generated_Source\PSoC4/cyfitter_cfg.c **** 			{0x33u, 0x40u},
 534:Generated_Source\PSoC4/cyfitter_cfg.c **** 			{0x36u, 0x80u},
 535:Generated_Source\PSoC4/cyfitter_cfg.c **** 			{0x38u, 0x84u},
 536:Generated_Source\PSoC4/cyfitter_cfg.c **** 			{0x3Bu, 0x10u},
 537:Generated_Source\PSoC4/cyfitter_cfg.c **** 			{0x3Eu, 0x02u},
 538:Generated_Source\PSoC4/cyfitter_cfg.c **** 			{0x3Fu, 0x08u},
 539:Generated_Source\PSoC4/cyfitter_cfg.c **** 			{0x58u, 0x02u},
 540:Generated_Source\PSoC4/cyfitter_cfg.c **** 			{0x59u, 0x14u},
 541:Generated_Source\PSoC4/cyfitter_cfg.c **** 			{0x5Au, 0x88u},
 542:Generated_Source\PSoC4/cyfitter_cfg.c **** 			{0x5Du, 0x10u},
 543:Generated_Source\PSoC4/cyfitter_cfg.c **** 			{0x5Eu, 0x80u},
 544:Generated_Source\PSoC4/cyfitter_cfg.c **** 			{0x5Fu, 0x09u},
 545:Generated_Source\PSoC4/cyfitter_cfg.c **** 			{0x66u, 0x18u},
 546:Generated_Source\PSoC4/cyfitter_cfg.c **** 			{0x67u, 0x03u},
 547:Generated_Source\PSoC4/cyfitter_cfg.c **** 			{0x79u, 0x10u},
 548:Generated_Source\PSoC4/cyfitter_cfg.c **** 			{0x7Bu, 0x04u},
 549:Generated_Source\PSoC4/cyfitter_cfg.c **** 			{0x7Eu, 0x04u},
 550:Generated_Source\PSoC4/cyfitter_cfg.c **** 			{0x88u, 0x12u},
 551:Generated_Source\PSoC4/cyfitter_cfg.c **** 			{0x8Fu, 0x40u},
 552:Generated_Source\PSoC4/cyfitter_cfg.c **** 			{0x90u, 0x84u},
 553:Generated_Source\PSoC4/cyfitter_cfg.c **** 			{0x95u, 0x02u},
 554:Generated_Source\PSoC4/cyfitter_cfg.c **** 			{0x97u, 0x10u},
ARM GAS  C:\Users\VIKTOR~1\AppData\Local\Temp\ccmfksX7.s 			page 16


 555:Generated_Source\PSoC4/cyfitter_cfg.c **** 			{0x98u, 0x11u},
 556:Generated_Source\PSoC4/cyfitter_cfg.c **** 			{0x99u, 0x24u},
 557:Generated_Source\PSoC4/cyfitter_cfg.c **** 			{0x9Au, 0x1Au},
 558:Generated_Source\PSoC4/cyfitter_cfg.c **** 			{0x9Du, 0x80u},
 559:Generated_Source\PSoC4/cyfitter_cfg.c **** 			{0xA1u, 0x01u},
 560:Generated_Source\PSoC4/cyfitter_cfg.c **** 			{0xA2u, 0x80u},
 561:Generated_Source\PSoC4/cyfitter_cfg.c **** 			{0xA3u, 0x05u},
 562:Generated_Source\PSoC4/cyfitter_cfg.c **** 			{0xADu, 0x10u},
 563:Generated_Source\PSoC4/cyfitter_cfg.c **** 			{0xB0u, 0x01u},
 564:Generated_Source\PSoC4/cyfitter_cfg.c **** 			{0xC0u, 0xA1u},
 565:Generated_Source\PSoC4/cyfitter_cfg.c **** 			{0xC2u, 0xCEu},
 566:Generated_Source\PSoC4/cyfitter_cfg.c **** 			{0xC4u, 0x03u},
 567:Generated_Source\PSoC4/cyfitter_cfg.c **** 			{0xCAu, 0x6Fu},
 568:Generated_Source\PSoC4/cyfitter_cfg.c **** 			{0xCCu, 0x1Fu},
 569:Generated_Source\PSoC4/cyfitter_cfg.c **** 			{0xCEu, 0xCEu},
 570:Generated_Source\PSoC4/cyfitter_cfg.c **** 			{0xD6u, 0xFFu},
 571:Generated_Source\PSoC4/cyfitter_cfg.c **** 			{0xD8u, 0x60u},
 572:Generated_Source\PSoC4/cyfitter_cfg.c **** 			{0xDEu, 0x20u},
 573:Generated_Source\PSoC4/cyfitter_cfg.c **** 			{0xE8u, 0x02u},
 574:Generated_Source\PSoC4/cyfitter_cfg.c **** 			{0x00u, 0x80u},
 575:Generated_Source\PSoC4/cyfitter_cfg.c **** 			{0x05u, 0x20u},
 576:Generated_Source\PSoC4/cyfitter_cfg.c **** 			{0x5Fu, 0x04u},
 577:Generated_Source\PSoC4/cyfitter_cfg.c **** 			{0x62u, 0x02u},
 578:Generated_Source\PSoC4/cyfitter_cfg.c **** 			{0x63u, 0x01u},
 579:Generated_Source\PSoC4/cyfitter_cfg.c **** 			{0x83u, 0x01u},
 580:Generated_Source\PSoC4/cyfitter_cfg.c **** 			{0x8Bu, 0x04u},
 581:Generated_Source\PSoC4/cyfitter_cfg.c **** 			{0xC0u, 0x03u},
 582:Generated_Source\PSoC4/cyfitter_cfg.c **** 			{0xD6u, 0x03u},
 583:Generated_Source\PSoC4/cyfitter_cfg.c **** 			{0xD8u, 0x02u},
 584:Generated_Source\PSoC4/cyfitter_cfg.c **** 			{0xE4u, 0x04u},
 585:Generated_Source\PSoC4/cyfitter_cfg.c **** 			{0x8Du, 0x20u},
 586:Generated_Source\PSoC4/cyfitter_cfg.c **** 			{0x99u, 0x20u},
 587:Generated_Source\PSoC4/cyfitter_cfg.c **** 			{0xAEu, 0x02u},
 588:Generated_Source\PSoC4/cyfitter_cfg.c **** 			{0xB0u, 0x40u},
 589:Generated_Source\PSoC4/cyfitter_cfg.c **** 			{0xE2u, 0x08u},
 590:Generated_Source\PSoC4/cyfitter_cfg.c **** 			{0xEEu, 0x04u},
 591:Generated_Source\PSoC4/cyfitter_cfg.c **** 			{0x01u, 0x01u},
 592:Generated_Source\PSoC4/cyfitter_cfg.c **** 			{0x10u, 0x01u},
 593:Generated_Source\PSoC4/cyfitter_cfg.c **** 		};
 594:Generated_Source\PSoC4/cyfitter_cfg.c **** 
 595:Generated_Source\PSoC4/cyfitter_cfg.c **** 
 596:Generated_Source\PSoC4/cyfitter_cfg.c **** 
 597:Generated_Source\PSoC4/cyfitter_cfg.c **** 		CYPACKED typedef struct {
 598:Generated_Source\PSoC4/cyfitter_cfg.c **** 			void CYFAR *address;
 599:Generated_Source\PSoC4/cyfitter_cfg.c **** 			uint16 size;
 600:Generated_Source\PSoC4/cyfitter_cfg.c **** 		} CYPACKED_ATTR cfg_memset_t;
 601:Generated_Source\PSoC4/cyfitter_cfg.c **** 
 602:Generated_Source\PSoC4/cyfitter_cfg.c **** 		static const cfg_memset_t CYCODE cfg_memset_list[] = {
 603:Generated_Source\PSoC4/cyfitter_cfg.c **** 			/* address, size */
 604:Generated_Source\PSoC4/cyfitter_cfg.c **** 			{(void CYFAR *)(CYDEV_UDB_P0_U0_BASE), 1024u},
 605:Generated_Source\PSoC4/cyfitter_cfg.c **** 			{(void CYFAR *)(CYDEV_UDB_DSI0_BASE), 1024u},
 606:Generated_Source\PSoC4/cyfitter_cfg.c **** 		};
 607:Generated_Source\PSoC4/cyfitter_cfg.c **** 
 608:Generated_Source\PSoC4/cyfitter_cfg.c **** 		uint8 CYDATA i;
 609:Generated_Source\PSoC4/cyfitter_cfg.c **** 
 610:Generated_Source\PSoC4/cyfitter_cfg.c **** 		/* Zero out critical memory blocks before beginning configuration */
 611:Generated_Source\PSoC4/cyfitter_cfg.c **** 		for (i = 0u; i < (sizeof(cfg_memset_list)/sizeof(cfg_memset_list[0])); i++)
ARM GAS  C:\Users\VIKTOR~1\AppData\Local\Temp\ccmfksX7.s 			page 17


 280              		.loc 1 611 0
 281 009c 0024     		movs	r4, #0
 282 009e 0FE0     		b	.L14
 283              	.LVL19:
 284              	.L15:
 285              	.LBB4:
 612:Generated_Source\PSoC4/cyfitter_cfg.c **** 		{
 613:Generated_Source\PSoC4/cyfitter_cfg.c **** 			const cfg_memset_t CYCODE * CYDATA ms = &cfg_memset_list[i];
 614:Generated_Source\PSoC4/cyfitter_cfg.c **** 			CYMEMZERO(ms->address, (size_t)(uint32)(ms->size));
 286              		.loc 1 614 0 discriminator 3
 287 00a0 2B48     		ldr	r0, .L16
 288 00a2 6200     		lsls	r2, r4, #1
 289 00a4 1319     		adds	r3, r2, r4
 290 00a6 5900     		lsls	r1, r3, #1
 291 00a8 0B00     		movs	r3, r1
 292 00aa 4118     		adds	r1, r0, r1
 293 00ac 8988     		ldrh	r1, [r1, #4]
 294 00ae 1A5A     		ldrh	r2, [r3, r0]
 295 00b0 C318     		adds	r3, r0, r3
 296 00b2 5888     		ldrh	r0, [r3, #2]
 297 00b4 0004     		lsls	r0, r0, #16
 298 00b6 1043     		orrs	r0, r2
 299 00b8 FFF7FEFF 		bl	CYMEMZERO
 300              	.LVL20:
 301              	.LBE4:
 611:Generated_Source\PSoC4/cyfitter_cfg.c **** 		{
 302              		.loc 1 611 0 discriminator 3
 303 00bc 0134     		adds	r4, r4, #1
 304              	.LVL21:
 305 00be E4B2     		uxtb	r4, r4
 306              	.LVL22:
 307              	.L14:
 611:Generated_Source\PSoC4/cyfitter_cfg.c **** 		{
 308              		.loc 1 611 0 is_stmt 0 discriminator 1
 309 00c0 012C     		cmp	r4, #1
 310 00c2 EDD9     		bls	.L15
 615:Generated_Source\PSoC4/cyfitter_cfg.c **** 		}
 616:Generated_Source\PSoC4/cyfitter_cfg.c **** 
 617:Generated_Source\PSoC4/cyfitter_cfg.c **** 		cfg_write_bytes32(cy_cfg_addr_table, cy_cfg_data_table);
 311              		.loc 1 617 0 is_stmt 1
 312 00c4 2249     		ldr	r1, .L16
 313 00c6 0C31     		adds	r1, r1, #12
 314 00c8 2248     		ldr	r0, .L16+4
 315 00ca 4430     		adds	r0, r0, #68
 316 00cc FFF7FEFF 		bl	cfg_write_bytes32
 317              	.LVL23:
 618:Generated_Source\PSoC4/cyfitter_cfg.c **** 
 619:Generated_Source\PSoC4/cyfitter_cfg.c **** 		/* HSIOM Starting address: CYDEV_HSIOM_BASE */
 620:Generated_Source\PSoC4/cyfitter_cfg.c **** 		CY_SET_REG32((void *)(CYREG_HSIOM_PORT_SEL2), 0x03330000u);
 318              		.loc 1 620 0
 319 00d0 214A     		ldr	r2, .L16+8
 320 00d2 224B     		ldr	r3, .L16+12
 321 00d4 1A60     		str	r2, [r3]
 621:Generated_Source\PSoC4/cyfitter_cfg.c **** 		CY_SET_REG32((void *)(CYREG_HSIOM_PORT_SEL3), 0x0000EE00u);
 322              		.loc 1 621 0
 323 00d6 EE22     		movs	r2, #238
 324 00d8 1202     		lsls	r2, r2, #8
ARM GAS  C:\Users\VIKTOR~1\AppData\Local\Temp\ccmfksX7.s 			page 18


 325 00da 214B     		ldr	r3, .L16+16
 326 00dc 1A60     		str	r2, [r3]
 622:Generated_Source\PSoC4/cyfitter_cfg.c **** 
 623:Generated_Source\PSoC4/cyfitter_cfg.c **** 		/* UDB_PA_0 Starting address: CYDEV_UDB_PA0_BASE */
 624:Generated_Source\PSoC4/cyfitter_cfg.c **** 		CY_SET_REG32((void *)(CYDEV_UDB_PA0_BASE), 0x00990000u);
 327              		.loc 1 624 0
 328 00de 9923     		movs	r3, #153
 329 00e0 1B04     		lsls	r3, r3, #16
 330 00e2 204A     		ldr	r2, .L16+20
 331 00e4 1360     		str	r3, [r2]
 625:Generated_Source\PSoC4/cyfitter_cfg.c **** 
 626:Generated_Source\PSoC4/cyfitter_cfg.c **** 		/* UDB_PA_2 Starting address: CYDEV_UDB_PA2_BASE */
 627:Generated_Source\PSoC4/cyfitter_cfg.c **** 		CY_SET_REG32((void *)(CYDEV_UDB_PA2_BASE), 0x00990000u);
 332              		.loc 1 627 0
 333 00e6 204A     		ldr	r2, .L16+24
 334 00e8 1360     		str	r3, [r2]
 628:Generated_Source\PSoC4/cyfitter_cfg.c **** 		CY_SET_REG32((void *)(CYREG_UDB_PA2_CFG8), 0xD8000000u);
 335              		.loc 1 628 0
 336 00ea D821     		movs	r1, #216
 337 00ec 0906     		lsls	r1, r1, #24
 338 00ee 1F4A     		ldr	r2, .L16+28
 339 00f0 1160     		str	r1, [r2]
 629:Generated_Source\PSoC4/cyfitter_cfg.c **** 
 630:Generated_Source\PSoC4/cyfitter_cfg.c **** 		/* UDB_PA_3 Starting address: CYDEV_UDB_PA3_BASE */
 631:Generated_Source\PSoC4/cyfitter_cfg.c **** 		CY_SET_REG32((void *)(CYDEV_UDB_PA3_BASE), 0x00990000u);
 340              		.loc 1 631 0
 341 00f2 1F4A     		ldr	r2, .L16+32
 342 00f4 1360     		str	r3, [r2]
 632:Generated_Source\PSoC4/cyfitter_cfg.c **** 
 633:Generated_Source\PSoC4/cyfitter_cfg.c **** 		/* UDB_P1_U0_CFG24 Starting address: CYDEV_UDB_P1_U0_CFG24 */
 634:Generated_Source\PSoC4/cyfitter_cfg.c **** 		CY_SET_REG32((void *)(CYREG_UDB_P1_U0_CFG24), 0x44000404u);
 343              		.loc 1 634 0
 344 00f6 1F4A     		ldr	r2, .L16+36
 345 00f8 1F4B     		ldr	r3, .L16+40
 346 00fa 1A60     		str	r2, [r3]
 635:Generated_Source\PSoC4/cyfitter_cfg.c **** 
 636:Generated_Source\PSoC4/cyfitter_cfg.c **** 		/* Enable UDB array and digital routing */
 637:Generated_Source\PSoC4/cyfitter_cfg.c **** 		CY_SET_XTND_REG8((void *)CYREG_UDB_UDBIF_WAIT_CFG, (uint8)((CY_GET_XTND_REG8((void *)CYREG_UDB_UD
 347              		.loc 1 637 0
 348 00fc 1F49     		ldr	r1, .L16+44
 349 00fe 0B78     		ldrb	r3, [r1]
 350 0100 3C22     		movs	r2, #60
 351 0102 9343     		bics	r3, r2
 352 0104 1422     		movs	r2, #20
 353 0106 1343     		orrs	r3, r2
 354 0108 DBB2     		uxtb	r3, r3
 355 010a 0B70     		strb	r3, [r1]
 638:Generated_Source\PSoC4/cyfitter_cfg.c **** 		CY_SET_XTND_REG8((void *)CYREG_UDB_UDBIF_BANK_CTL, (uint8)(CY_GET_XTND_REG8((void *)CYREG_UDB_UDB
 356              		.loc 1 638 0
 357 010c 1C4A     		ldr	r2, .L16+48
 358 010e 1178     		ldrb	r1, [r2]
 359 0110 1623     		movs	r3, #22
 360 0112 0B43     		orrs	r3, r1
 361 0114 DBB2     		uxtb	r3, r3
 362 0116 1370     		strb	r3, [r2]
 363              	.LBE3:
 639:Generated_Source\PSoC4/cyfitter_cfg.c **** 	}
ARM GAS  C:\Users\VIKTOR~1\AppData\Local\Temp\ccmfksX7.s 			page 19


 640:Generated_Source\PSoC4/cyfitter_cfg.c **** 
 641:Generated_Source\PSoC4/cyfitter_cfg.c **** 	/* Perform second pass device configuration. These items must be configured in specific order afte
 642:Generated_Source\PSoC4/cyfitter_cfg.c **** 	/* IOPINS0_0 Starting address: CYDEV_GPIO_PRT0_BASE */
 643:Generated_Source\PSoC4/cyfitter_cfg.c **** 	CY_SET_REG32((void *)(CYDEV_GPIO_PRT0_BASE), 0x00000080u);
 364              		.loc 1 643 0
 365 0118 8022     		movs	r2, #128
 366 011a 1A4B     		ldr	r3, .L16+52
 367 011c 1A60     		str	r2, [r3]
 644:Generated_Source\PSoC4/cyfitter_cfg.c **** 	CY_SET_REG32((void *)(CYREG_GPIO_PRT0_PC), 0x005B6DB6u);
 368              		.loc 1 644 0
 369 011e 1A4A     		ldr	r2, .L16+56
 370 0120 1A4B     		ldr	r3, .L16+60
 371 0122 1A60     		str	r2, [r3]
 645:Generated_Source\PSoC4/cyfitter_cfg.c **** 	CY_SET_REG32((void *)(CYREG_GPIO_PRT0_INTR_CFG), 0x00008000u);
 372              		.loc 1 645 0
 373 0124 8022     		movs	r2, #128
 374 0126 1202     		lsls	r2, r2, #8
 375 0128 194B     		ldr	r3, .L16+64
 376 012a 1A60     		str	r2, [r3]
 646:Generated_Source\PSoC4/cyfitter_cfg.c **** 
 647:Generated_Source\PSoC4/cyfitter_cfg.c **** 	/* IOPINS0_2 Starting address: CYDEV_GPIO_PRT2_BASE */
 648:Generated_Source\PSoC4/cyfitter_cfg.c **** 	CY_SET_REG32((void *)(CYDEV_GPIO_PRT2_BASE), 0x00000072u);
 377              		.loc 1 648 0
 378 012c 7222     		movs	r2, #114
 379 012e 194B     		ldr	r3, .L16+68
 380 0130 1A60     		str	r2, [r3]
 649:Generated_Source\PSoC4/cyfitter_cfg.c **** 	CY_SET_REG32((void *)(CYREG_GPIO_PRT2_PC), 0x001B66D0u);
 381              		.loc 1 649 0
 382 0132 194A     		ldr	r2, .L16+72
 383 0134 194B     		ldr	r3, .L16+76
 384 0136 1A60     		str	r2, [r3]
 650:Generated_Source\PSoC4/cyfitter_cfg.c **** 	CY_SET_REG32((void *)(CYREG_GPIO_PRT2_INTR_CFG), 0x00000008u);
 385              		.loc 1 650 0
 386 0138 0822     		movs	r2, #8
 387 013a 194B     		ldr	r3, .L16+80
 388 013c 1A60     		str	r2, [r3]
 651:Generated_Source\PSoC4/cyfitter_cfg.c **** 
 652:Generated_Source\PSoC4/cyfitter_cfg.c **** 	/* IOPINS0_3 Starting address: CYDEV_GPIO_PRT3_BASE */
 653:Generated_Source\PSoC4/cyfitter_cfg.c **** 	CY_SET_REG32((void *)(CYREG_GPIO_PRT3_PC), 0x00000D80u);
 389              		.loc 1 653 0
 390 013e D822     		movs	r2, #216
 391 0140 1201     		lsls	r2, r2, #4
 392 0142 184B     		ldr	r3, .L16+84
 393 0144 1A60     		str	r2, [r3]
 654:Generated_Source\PSoC4/cyfitter_cfg.c **** 
 655:Generated_Source\PSoC4/cyfitter_cfg.c **** 
 656:Generated_Source\PSoC4/cyfitter_cfg.c **** 	/* Setup clocks based on selections from Clock DWR */
 657:Generated_Source\PSoC4/cyfitter_cfg.c **** 	ClockSetup();
 394              		.loc 1 657 0
 395 0146 FFF75BFF 		bl	ClockSetup
 396              	.LVL24:
 658:Generated_Source\PSoC4/cyfitter_cfg.c **** 
 659:Generated_Source\PSoC4/cyfitter_cfg.c **** 	/* Perform basic analog initialization to defaults */
 660:Generated_Source\PSoC4/cyfitter_cfg.c **** 	AnalogSetDefault();
 397              		.loc 1 660 0
 398 014a FFF7FEFF 		bl	AnalogSetDefault
 399              	.LVL25:
ARM GAS  C:\Users\VIKTOR~1\AppData\Local\Temp\ccmfksX7.s 			page 20


 661:Generated_Source\PSoC4/cyfitter_cfg.c **** 
 662:Generated_Source\PSoC4/cyfitter_cfg.c **** }
 400              		.loc 1 662 0
 401              		@ sp needed
 402              	.LVL26:
 403 014e 10BD     		pop	{r4, pc}
 404              	.L17:
 405              		.align	2
 406              	.L16:
 407 0150 00000000 		.word	.LANCHOR0
 408 0154 00020000 		.word	.LANCHOR1
 409 0158 00003303 		.word	53673984
 410 015c 00020240 		.word	1073873408
 411 0160 00030240 		.word	1073873664
 412 0164 00500F40 		.word	1074745344
 413 0168 20500F40 		.word	1074745376
 414 016c 28500F40 		.word	1074745384
 415 0170 30500F40 		.word	1074745392
 416 0174 04040044 		.word	1140851716
 417 0178 58320F40 		.word	1074737752
 418 017c 01700F40 		.word	1074753537
 419 0180 00700F40 		.word	1074753536
 420 0184 00000440 		.word	1074003968
 421 0188 B66D5B00 		.word	5991862
 422 018c 08000440 		.word	1074003976
 423 0190 0C000440 		.word	1074003980
 424 0194 00020440 		.word	1074004480
 425 0198 D0661B00 		.word	1795792
 426 019c 08020440 		.word	1074004488
 427 01a0 0C020440 		.word	1074004492
 428 01a4 08030440 		.word	1074004744
 429              		.cfi_endproc
 430              	.LFE7:
 431              		.size	cyfitter_cfg, .-cyfitter_cfg
 432              		.section	.rodata
 433              		.align	2
 434              		.set	.LANCHOR0,. + 0
 435              		.set	.LANCHOR1,. + 512
 436              		.type	cfg_memset_list.4911, %object
 437              		.size	cfg_memset_list.4911, 12
 438              	cfg_memset_list.4911:
 439 0000 00300F40 		.word	1074737152
 440 0004 0004     		.short	1024
 441 0006 00400F40 		.4byte	1074741248
 442 000a 0004     		.short	1024
 443              		.type	cy_cfg_data_table.4906, %object
 444              		.size	cy_cfg_data_table.4906, 566
 445              	cy_cfg_data_table.4906:
 446 000c 82       		.byte	-126
 447 000d 6F       		.byte	111
 448 000e 83       		.byte	-125
 449 000f 0F       		.byte	15
 450 0010 00       		.byte	0
 451 0011 CC       		.byte	-52
 452 0012 01       		.byte	1
 453 0013 30       		.byte	48
 454 0014 02       		.byte	2
ARM GAS  C:\Users\VIKTOR~1\AppData\Local\Temp\ccmfksX7.s 			page 21


 455 0015 21       		.byte	33
 456 0016 03       		.byte	3
 457 0017 C9       		.byte	-55
 458 0018 04       		.byte	4
 459 0019 CC       		.byte	-52
 460 001a 06       		.byte	6
 461 001b 12       		.byte	18
 462 001c 0B       		.byte	11
 463 001d 0F       		.byte	15
 464 001e 0C       		.byte	12
 465 001f 08       		.byte	8
 466 0020 0D       		.byte	13
 467 0021 CF       		.byte	-49
 468 0022 0E       		.byte	14
 469 0023 F1       		.byte	-15
 470 0024 0F       		.byte	15
 471 0025 30       		.byte	48
 472 0026 10       		.byte	16
 473 0027 80       		.byte	-128
 474 0028 12       		.byte	18
 475 0029 1F       		.byte	31
 476 002a 14       		.byte	20
 477 002b 77       		.byte	119
 478 002c 18       		.byte	24
 479 002d BB       		.byte	-69
 480 002e 19       		.byte	25
 481 002f FD       		.byte	-3
 482 0030 1A       		.byte	26
 483 0031 44       		.byte	68
 484 0032 1B       		.byte	27
 485 0033 02       		.byte	2
 486 0034 25       		.byte	37
 487 0035 73       		.byte	115
 488 0036 29       		.byte	41
 489 0037 9E       		.byte	-98
 490 0038 2B       		.byte	43
 491 0039 60       		.byte	96
 492 003a 2D       		.byte	45
 493 003b 94       		.byte	-108
 494 003c 2F       		.byte	47
 495 003d 60       		.byte	96
 496 003e 30       		.byte	48
 497 003f F0       		.byte	-16
 498 0040 34       		.byte	52
 499 0041 0F       		.byte	15
 500 0042 35       		.byte	53
 501 0043 FF       		.byte	-1
 502 0044 3F       		.byte	63
 503 0045 10       		.byte	16
 504 0046 58       		.byte	88
 505 0047 04       		.byte	4
 506 0048 59       		.byte	89
 507 0049 04       		.byte	4
 508 004a 5B       		.byte	91
 509 004b 04       		.byte	4
 510 004c 5F       		.byte	95
 511 004d 01       		.byte	1
ARM GAS  C:\Users\VIKTOR~1\AppData\Local\Temp\ccmfksX7.s 			page 22


 512 004e 80       		.byte	-128
 513 004f C6       		.byte	-58
 514 0050 82       		.byte	-126
 515 0051 30       		.byte	48
 516 0052 83       		.byte	-125
 517 0053 10       		.byte	16
 518 0054 84       		.byte	-124
 519 0055 A6       		.byte	-90
 520 0056 86       		.byte	-122
 521 0057 50       		.byte	80
 522 0058 88       		.byte	-120
 523 0059 F5       		.byte	-11
 524 005a 89       		.byte	-119
 525 005b 10       		.byte	16
 526 005c 8C       		.byte	-116
 527 005d 08       		.byte	8
 528 005e 8D       		.byte	-115
 529 005f 04       		.byte	4
 530 0060 8F       		.byte	-113
 531 0061 08       		.byte	8
 532 0062 90       		.byte	-112
 533 0063 50       		.byte	80
 534 0064 92       		.byte	-110
 535 0065 A0       		.byte	-96
 536 0066 93       		.byte	-109
 537 0067 13       		.byte	19
 538 0068 94       		.byte	-108
 539 0069 7B       		.byte	123
 540 006a 95       		.byte	-107
 541 006b 06       		.byte	6
 542 006c 98       		.byte	-104
 543 006d 08       		.byte	8
 544 006e 99       		.byte	-103
 545 006f 0C       		.byte	12
 546 0070 9B       		.byte	-101
 547 0071 02       		.byte	2
 548 0072 9D       		.byte	-99
 549 0073 0C       		.byte	12
 550 0074 A0       		.byte	-96
 551 0075 30       		.byte	48
 552 0076 A1       		.byte	-95
 553 0077 0E       		.byte	14
 554 0078 A2       		.byte	-94
 555 0079 C0       		.byte	-64
 556 007a A9       		.byte	-87
 557 007b 0A       		.byte	10
 558 007c AB       		.byte	-85
 559 007d 04       		.byte	4
 560 007e B2       		.byte	-78
 561 007f 07       		.byte	7
 562 0080 B3       		.byte	-77
 563 0081 10       		.byte	16
 564 0082 B4       		.byte	-76
 565 0083 F0       		.byte	-16
 566 0084 B5       		.byte	-75
 567 0085 01       		.byte	1
 568 0086 B6       		.byte	-74
ARM GAS  C:\Users\VIKTOR~1\AppData\Local\Temp\ccmfksX7.s 			page 23


 569 0087 08       		.byte	8
 570 0088 B7       		.byte	-73
 571 0089 0E       		.byte	14
 572 008a B8       		.byte	-72
 573 008b 88       		.byte	-120
 574 008c BE       		.byte	-66
 575 008d 40       		.byte	64
 576 008e BF       		.byte	-65
 577 008f 04       		.byte	4
 578 0090 C0       		.byte	-64
 579 0091 21       		.byte	33
 580 0092 C1       		.byte	-63
 581 0093 06       		.byte	6
 582 0094 C5       		.byte	-59
 583 0095 42       		.byte	66
 584 0096 C6       		.byte	-58
 585 0097 C0       		.byte	-64
 586 0098 C7       		.byte	-57
 587 0099 3E       		.byte	62
 588 009a C8       		.byte	-56
 589 009b 3B       		.byte	59
 590 009c C9       		.byte	-55
 591 009d FF       		.byte	-1
 592 009e CA       		.byte	-54
 593 009f FF       		.byte	-1
 594 00a0 CB       		.byte	-53
 595 00a1 FF       		.byte	-1
 596 00a2 CD       		.byte	-51
 597 00a3 A0       		.byte	-96
 598 00a4 CF       		.byte	-49
 599 00a5 01       		.byte	1
 600 00a6 D0       		.byte	-48
 601 00a7 18       		.byte	24
 602 00a8 D2       		.byte	-46
 603 00a9 80       		.byte	-128
 604 00aa D8       		.byte	-40
 605 00ab 04       		.byte	4
 606 00ac D9       		.byte	-39
 607 00ad 04       		.byte	4
 608 00ae DA       		.byte	-38
 609 00af 04       		.byte	4
 610 00b0 DB       		.byte	-37
 611 00b1 04       		.byte	4
 612 00b2 DF       		.byte	-33
 613 00b3 01       		.byte	1
 614 00b4 E0       		.byte	-32
 615 00b5 40       		.byte	64
 616 00b6 E2       		.byte	-30
 617 00b7 80       		.byte	-128
 618 00b8 E4       		.byte	-28
 619 00b9 40       		.byte	64
 620 00ba E5       		.byte	-27
 621 00bb 40       		.byte	64
 622 00bc E6       		.byte	-26
 623 00bd 80       		.byte	-128
 624 00be E8       		.byte	-24
 625 00bf 40       		.byte	64
ARM GAS  C:\Users\VIKTOR~1\AppData\Local\Temp\ccmfksX7.s 			page 24


 626 00c0 EA       		.byte	-22
 627 00c1 80       		.byte	-128
 628 00c2 EC       		.byte	-20
 629 00c3 40       		.byte	64
 630 00c4 ED       		.byte	-19
 631 00c5 20       		.byte	32
 632 00c6 EE       		.byte	-18
 633 00c7 80       		.byte	-128
 634 00c8 01       		.byte	1
 635 00c9 8A       		.byte	-118
 636 00ca 04       		.byte	4
 637 00cb 08       		.byte	8
 638 00cc 05       		.byte	5
 639 00cd 1A       		.byte	26
 640 00ce 06       		.byte	6
 641 00cf 02       		.byte	2
 642 00d0 08       		.byte	8
 643 00d1 10       		.byte	16
 644 00d2 09       		.byte	9
 645 00d3 08       		.byte	8
 646 00d4 0A       		.byte	10
 647 00d5 40       		.byte	64
 648 00d6 0D       		.byte	13
 649 00d7 01       		.byte	1
 650 00d8 0E       		.byte	14
 651 00d9 60       		.byte	96
 652 00da 0F       		.byte	15
 653 00db 08       		.byte	8
 654 00dc 16       		.byte	22
 655 00dd 80       		.byte	-128
 656 00de 18       		.byte	24
 657 00df 88       		.byte	-120
 658 00e0 19       		.byte	25
 659 00e1 22       		.byte	34
 660 00e2 1D       		.byte	29
 661 00e3 9C       		.byte	-100
 662 00e4 1E       		.byte	30
 663 00e5 20       		.byte	32
 664 00e6 20       		.byte	32
 665 00e7 04       		.byte	4
 666 00e8 25       		.byte	37
 667 00e9 10       		.byte	16
 668 00ea 27       		.byte	39
 669 00eb 22       		.byte	34
 670 00ec 29       		.byte	41
 671 00ed A4       		.byte	-92
 672 00ee 2A       		.byte	42
 673 00ef 80       		.byte	-128
 674 00f0 2D       		.byte	45
 675 00f1 22       		.byte	34
 676 00f2 30       		.byte	48
 677 00f3 10       		.byte	16
 678 00f4 31       		.byte	49
 679 00f5 10       		.byte	16
 680 00f6 35       		.byte	53
 681 00f7 94       		.byte	-108
 682 00f8 37       		.byte	55
ARM GAS  C:\Users\VIKTOR~1\AppData\Local\Temp\ccmfksX7.s 			page 25


 683 00f9 02       		.byte	2
 684 00fa 38       		.byte	56
 685 00fb 80       		.byte	-128
 686 00fc 39       		.byte	57
 687 00fd 02       		.byte	2
 688 00fe 3B       		.byte	59
 689 00ff 10       		.byte	16
 690 0100 3C       		.byte	60
 691 0101 02       		.byte	2
 692 0102 3D       		.byte	61
 693 0103 20       		.byte	32
 694 0104 3E       		.byte	62
 695 0105 40       		.byte	64
 696 0106 45       		.byte	69
 697 0107 80       		.byte	-128
 698 0108 47       		.byte	71
 699 0109 20       		.byte	32
 700 010a 4E       		.byte	78
 701 010b 80       		.byte	-128
 702 010c 4F       		.byte	79
 703 010d 1A       		.byte	26
 704 010e 55       		.byte	85
 705 010f 01       		.byte	1
 706 0110 56       		.byte	86
 707 0111 1A       		.byte	26
 708 0112 69       		.byte	105
 709 0113 A0       		.byte	-96
 710 0114 6A       		.byte	106
 711 0115 04       		.byte	4
 712 0116 74       		.byte	116
 713 0117 01       		.byte	1
 714 0118 81       		.byte	-127
 715 0119 40       		.byte	64
 716 011a 8A       		.byte	-118
 717 011b 04       		.byte	4
 718 011c C0       		.byte	-64
 719 011d FD       		.byte	-3
 720 011e C2       		.byte	-62
 721 011f 7E       		.byte	126
 722 0120 C4       		.byte	-60
 723 0121 10       		.byte	16
 724 0122 CA       		.byte	-54
 725 0123 AE       		.byte	-82
 726 0124 CC       		.byte	-52
 727 0125 F4       		.byte	-12
 728 0126 CE       		.byte	-50
 729 0127 BD       		.byte	-67
 730 0128 D0       		.byte	-48
 731 0129 30       		.byte	48
 732 012a D2       		.byte	-46
 733 012b 20       		.byte	32
 734 012c E0       		.byte	-32
 735 012d 01       		.byte	1
 736 012e 03       		.byte	3
 737 012f 02       		.byte	2
 738 0130 04       		.byte	4
 739 0131 01       		.byte	1
ARM GAS  C:\Users\VIKTOR~1\AppData\Local\Temp\ccmfksX7.s 			page 26


 740 0132 07       		.byte	7
 741 0133 01       		.byte	1
 742 0134 0E       		.byte	14
 743 0135 02       		.byte	2
 744 0136 1A       		.byte	26
 745 0137 01       		.byte	1
 746 0138 1E       		.byte	30
 747 0139 04       		.byte	4
 748 013a 1F       		.byte	31
 749 013b 04       		.byte	4
 750 013c 25       		.byte	37
 751 013d 04       		.byte	4
 752 013e 29       		.byte	41
 753 013f 02       		.byte	2
 754 0140 30       		.byte	48
 755 0141 01       		.byte	1
 756 0142 32       		.byte	50
 757 0143 02       		.byte	2
 758 0144 33       		.byte	51
 759 0145 01       		.byte	1
 760 0146 34       		.byte	52
 761 0147 04       		.byte	4
 762 0148 35       		.byte	53
 763 0149 02       		.byte	2
 764 014a 37       		.byte	55
 765 014b 04       		.byte	4
 766 014c 3E       		.byte	62
 767 014d 01       		.byte	1
 768 014e 3F       		.byte	63
 769 014f 50       		.byte	80
 770 0150 54       		.byte	84
 771 0151 0F       		.byte	15
 772 0152 58       		.byte	88
 773 0153 04       		.byte	4
 774 0154 59       		.byte	89
 775 0155 04       		.byte	4
 776 0156 5B       		.byte	91
 777 0157 04       		.byte	4
 778 0158 5F       		.byte	95
 779 0159 05       		.byte	5
 780 015a 87       		.byte	-121
 781 015b 20       		.byte	32
 782 015c 8B       		.byte	-117
 783 015d 1E       		.byte	30
 784 015e 8E       		.byte	-114
 785 015f 01       		.byte	1
 786 0160 8F       		.byte	-113
 787 0161 10       		.byte	16
 788 0162 90       		.byte	-112
 789 0163 04       		.byte	4
 790 0164 91       		.byte	-111
 791 0165 10       		.byte	16
 792 0166 94       		.byte	-108
 793 0167 01       		.byte	1
 794 0168 95       		.byte	-107
 795 0169 1C       		.byte	28
 796 016a 98       		.byte	-104
ARM GAS  C:\Users\VIKTOR~1\AppData\Local\Temp\ccmfksX7.s 			page 27


 797 016b 01       		.byte	1
 798 016c 99       		.byte	-103
 799 016d 02       		.byte	2
 800 016e 9F       		.byte	-97
 801 016f 01       		.byte	1
 802 0170 A1       		.byte	-95
 803 0171 04       		.byte	4
 804 0172 A3       		.byte	-93
 805 0173 08       		.byte	8
 806 0174 A5       		.byte	-91
 807 0175 1C       		.byte	28
 808 0176 A8       		.byte	-88
 809 0177 04       		.byte	4
 810 0178 A9       		.byte	-87
 811 0179 04       		.byte	4
 812 017a AB       		.byte	-85
 813 017b 08       		.byte	8
 814 017c AE       		.byte	-82
 815 017d 02       		.byte	2
 816 017e AF       		.byte	-81
 817 017f 02       		.byte	2
 818 0180 B0       		.byte	-80
 819 0181 04       		.byte	4
 820 0182 B1       		.byte	-79
 821 0183 01       		.byte	1
 822 0184 B3       		.byte	-77
 823 0185 3C       		.byte	60
 824 0186 B4       		.byte	-76
 825 0187 01       		.byte	1
 826 0188 B6       		.byte	-74
 827 0189 02       		.byte	2
 828 018a B7       		.byte	-73
 829 018b 02       		.byte	2
 830 018c B8       		.byte	-72
 831 018d 02       		.byte	2
 832 018e BE       		.byte	-66
 833 018f 10       		.byte	16
 834 0190 BF       		.byte	-65
 835 0191 40       		.byte	64
 836 0192 D4       		.byte	-44
 837 0193 0F       		.byte	15
 838 0194 D8       		.byte	-40
 839 0195 04       		.byte	4
 840 0196 D9       		.byte	-39
 841 0197 04       		.byte	4
 842 0198 DB       		.byte	-37
 843 0199 04       		.byte	4
 844 019a DF       		.byte	-33
 845 019b 01       		.byte	1
 846 019c 03       		.byte	3
 847 019d 02       		.byte	2
 848 019e 06       		.byte	6
 849 019f 02       		.byte	2
 850 01a0 07       		.byte	7
 851 01a1 20       		.byte	32
 852 01a2 09       		.byte	9
 853 01a3 21       		.byte	33
ARM GAS  C:\Users\VIKTOR~1\AppData\Local\Temp\ccmfksX7.s 			page 28


 854 01a4 0B       		.byte	11
 855 01a5 10       		.byte	16
 856 01a6 0F       		.byte	15
 857 01a7 0A       		.byte	10
 858 01a8 10       		.byte	16
 859 01a9 01       		.byte	1
 860 01aa 11       		.byte	17
 861 01ab 10       		.byte	16
 862 01ac 19       		.byte	25
 863 01ad 90       		.byte	-112
 864 01ae 1B       		.byte	27
 865 01af 42       		.byte	66
 866 01b0 1D       		.byte	29
 867 01b1 20       		.byte	32
 868 01b2 1F       		.byte	31
 869 01b3 29       		.byte	41
 870 01b4 21       		.byte	33
 871 01b5 01       		.byte	1
 872 01b6 22       		.byte	34
 873 01b7 41       		.byte	65
 874 01b8 23       		.byte	35
 875 01b9 10       		.byte	16
 876 01ba 26       		.byte	38
 877 01bb 40       		.byte	64
 878 01bc 27       		.byte	39
 879 01bd 28       		.byte	40
 880 01be 28       		.byte	40
 881 01bf 10       		.byte	16
 882 01c0 29       		.byte	41
 883 01c1 20       		.byte	32
 884 01c2 2B       		.byte	43
 885 01c3 42       		.byte	66
 886 01c4 2F       		.byte	47
 887 01c5 28       		.byte	40
 888 01c6 31       		.byte	49
 889 01c7 24       		.byte	36
 890 01c8 32       		.byte	50
 891 01c9 01       		.byte	1
 892 01ca 33       		.byte	51
 893 01cb 40       		.byte	64
 894 01cc 36       		.byte	54
 895 01cd 80       		.byte	-128
 896 01ce 38       		.byte	56
 897 01cf 84       		.byte	-124
 898 01d0 3B       		.byte	59
 899 01d1 10       		.byte	16
 900 01d2 3E       		.byte	62
 901 01d3 02       		.byte	2
 902 01d4 3F       		.byte	63
 903 01d5 08       		.byte	8
 904 01d6 58       		.byte	88
 905 01d7 02       		.byte	2
 906 01d8 59       		.byte	89
 907 01d9 14       		.byte	20
 908 01da 5A       		.byte	90
 909 01db 88       		.byte	-120
 910 01dc 5D       		.byte	93
ARM GAS  C:\Users\VIKTOR~1\AppData\Local\Temp\ccmfksX7.s 			page 29


 911 01dd 10       		.byte	16
 912 01de 5E       		.byte	94
 913 01df 80       		.byte	-128
 914 01e0 5F       		.byte	95
 915 01e1 09       		.byte	9
 916 01e2 66       		.byte	102
 917 01e3 18       		.byte	24
 918 01e4 67       		.byte	103
 919 01e5 03       		.byte	3
 920 01e6 79       		.byte	121
 921 01e7 10       		.byte	16
 922 01e8 7B       		.byte	123
 923 01e9 04       		.byte	4
 924 01ea 7E       		.byte	126
 925 01eb 04       		.byte	4
 926 01ec 88       		.byte	-120
 927 01ed 12       		.byte	18
 928 01ee 8F       		.byte	-113
 929 01ef 40       		.byte	64
 930 01f0 90       		.byte	-112
 931 01f1 84       		.byte	-124
 932 01f2 95       		.byte	-107
 933 01f3 02       		.byte	2
 934 01f4 97       		.byte	-105
 935 01f5 10       		.byte	16
 936 01f6 98       		.byte	-104
 937 01f7 11       		.byte	17
 938 01f8 99       		.byte	-103
 939 01f9 24       		.byte	36
 940 01fa 9A       		.byte	-102
 941 01fb 1A       		.byte	26
 942 01fc 9D       		.byte	-99
 943 01fd 80       		.byte	-128
 944 01fe A1       		.byte	-95
 945 01ff 01       		.byte	1
 946 0200 A2       		.byte	-94
 947 0201 80       		.byte	-128
 948 0202 A3       		.byte	-93
 949 0203 05       		.byte	5
 950 0204 AD       		.byte	-83
 951 0205 10       		.byte	16
 952 0206 B0       		.byte	-80
 953 0207 01       		.byte	1
 954 0208 C0       		.byte	-64
 955 0209 A1       		.byte	-95
 956 020a C2       		.byte	-62
 957 020b CE       		.byte	-50
 958 020c C4       		.byte	-60
 959 020d 03       		.byte	3
 960 020e CA       		.byte	-54
 961 020f 6F       		.byte	111
 962 0210 CC       		.byte	-52
 963 0211 1F       		.byte	31
 964 0212 CE       		.byte	-50
 965 0213 CE       		.byte	-50
 966 0214 D6       		.byte	-42
 967 0215 FF       		.byte	-1
ARM GAS  C:\Users\VIKTOR~1\AppData\Local\Temp\ccmfksX7.s 			page 30


 968 0216 D8       		.byte	-40
 969 0217 60       		.byte	96
 970 0218 DE       		.byte	-34
 971 0219 20       		.byte	32
 972 021a E8       		.byte	-24
 973 021b 02       		.byte	2
 974 021c 00       		.byte	0
 975 021d 80       		.byte	-128
 976 021e 05       		.byte	5
 977 021f 20       		.byte	32
 978 0220 5F       		.byte	95
 979 0221 04       		.byte	4
 980 0222 62       		.byte	98
 981 0223 02       		.byte	2
 982 0224 63       		.byte	99
 983 0225 01       		.byte	1
 984 0226 83       		.byte	-125
 985 0227 01       		.byte	1
 986 0228 8B       		.byte	-117
 987 0229 04       		.byte	4
 988 022a C0       		.byte	-64
 989 022b 03       		.byte	3
 990 022c D6       		.byte	-42
 991 022d 03       		.byte	3
 992 022e D8       		.byte	-40
 993 022f 02       		.byte	2
 994 0230 E4       		.byte	-28
 995 0231 04       		.byte	4
 996 0232 8D       		.byte	-115
 997 0233 20       		.byte	32
 998 0234 99       		.byte	-103
 999 0235 20       		.byte	32
 1000 0236 AE       		.byte	-82
 1001 0237 02       		.byte	2
 1002 0238 B0       		.byte	-80
 1003 0239 40       		.byte	64
 1004 023a E2       		.byte	-30
 1005 023b 08       		.byte	8
 1006 023c EE       		.byte	-18
 1007 023d 04       		.byte	4
 1008 023e 01       		.byte	1
 1009 023f 01       		.byte	1
 1010 0240 10       		.byte	16
 1011 0241 01       		.byte	1
 1012 0242 0000     		.space	2
 1013              		.type	cy_cfg_addr_table.4905, %object
 1014              		.size	cy_cfg_addr_table.4905, 32
 1015              	cy_cfg_addr_table.4905:
 1016 0244 02000F40 		.word	1074724866
 1017 0248 5C300F40 		.word	1074737244
 1018 024c 33310F40 		.word	1074737459
 1019 0250 37320F40 		.word	1074737719
 1020 0254 40330F40 		.word	1074737984
 1021 0258 0B420F40 		.word	1074741771
 1022 025c 06430F40 		.word	1074742022
 1023 0260 02600F40 		.word	1074749442
 1024              		.text
ARM GAS  C:\Users\VIKTOR~1\AppData\Local\Temp\ccmfksX7.s 			page 31


 1025              	.Letext0:
 1026              		.file 2 "d:\\program files\\cypress\\psoc\\psoc creator\\4.4\\psoc creator\\import\\gnu\\arm\\5.4.
 1027              		.file 3 "Generated_Source\\PSoC4\\cytypes.h"
 1028              		.file 4 "Generated_Source\\PSoC4\\CyLib.h"