ARM GAS  C:\Users\VIKTOR~1\AppData\Local\Temp\ccaLWjg4.s 			page 1


   1              		.syntax unified
   2              		.cpu cortex-m0
   3              		.fpu softvfp
   4              		.eabi_attribute 20, 1
   5              		.eabi_attribute 21, 1
   6              		.eabi_attribute 23, 3
   7              		.eabi_attribute 24, 1
   8              		.eabi_attribute 25, 1
   9              		.eabi_attribute 26, 1
  10              		.eabi_attribute 30, 1
  11              		.eabi_attribute 34, 0
  12              		.eabi_attribute 18, 4
  13              		.thumb
  14              		.syntax unified
  15              		.file	"QuadDec_Cnt8.c"
  16              		.text
  17              	.Ltext0:
  18              		.cfi_sections	.debug_frame
  19              		.section	.text.QuadDec_Cnt8_Enable,"ax",%progbits
  20              		.align	2
  21              		.global	QuadDec_Cnt8_Enable
  22              		.code	16
  23              		.thumb_func
  24              		.type	QuadDec_Cnt8_Enable, %function
  25              	QuadDec_Cnt8_Enable:
  26              	.LFB2:
  27              		.file 1 "Generated_Source\\PSoC4\\QuadDec_Cnt8.c"
   1:Generated_Source\PSoC4/QuadDec_Cnt8.c **** /*******************************************************************************
   2:Generated_Source\PSoC4/QuadDec_Cnt8.c **** * File Name: QuadDec_Cnt8.c  
   3:Generated_Source\PSoC4/QuadDec_Cnt8.c **** * Version 3.0
   4:Generated_Source\PSoC4/QuadDec_Cnt8.c **** *
   5:Generated_Source\PSoC4/QuadDec_Cnt8.c **** *  Description:
   6:Generated_Source\PSoC4/QuadDec_Cnt8.c **** *     The Counter component consists of a 8, 16, 24 or 32-bit counter with
   7:Generated_Source\PSoC4/QuadDec_Cnt8.c **** *     a selectable period between 2 and 2^Width - 1.  
   8:Generated_Source\PSoC4/QuadDec_Cnt8.c **** *
   9:Generated_Source\PSoC4/QuadDec_Cnt8.c **** *   Note:
  10:Generated_Source\PSoC4/QuadDec_Cnt8.c **** *     None
  11:Generated_Source\PSoC4/QuadDec_Cnt8.c **** *
  12:Generated_Source\PSoC4/QuadDec_Cnt8.c **** ********************************************************************************
  13:Generated_Source\PSoC4/QuadDec_Cnt8.c **** * Copyright 2008-2012, Cypress Semiconductor Corporation.  All rights reserved.
  14:Generated_Source\PSoC4/QuadDec_Cnt8.c **** * You may use this file only in accordance with the license, terms, conditions, 
  15:Generated_Source\PSoC4/QuadDec_Cnt8.c **** * disclaimers, and limitations in the end user license agreement accompanying 
  16:Generated_Source\PSoC4/QuadDec_Cnt8.c **** * the software package with which this file was provided.
  17:Generated_Source\PSoC4/QuadDec_Cnt8.c **** *******************************************************************************/
  18:Generated_Source\PSoC4/QuadDec_Cnt8.c **** 
  19:Generated_Source\PSoC4/QuadDec_Cnt8.c **** #include "QuadDec_Cnt8.h"
  20:Generated_Source\PSoC4/QuadDec_Cnt8.c **** 
  21:Generated_Source\PSoC4/QuadDec_Cnt8.c **** uint8 QuadDec_Cnt8_initVar = 0u;
  22:Generated_Source\PSoC4/QuadDec_Cnt8.c **** 
  23:Generated_Source\PSoC4/QuadDec_Cnt8.c **** 
  24:Generated_Source\PSoC4/QuadDec_Cnt8.c **** /*******************************************************************************
  25:Generated_Source\PSoC4/QuadDec_Cnt8.c **** * Function Name: QuadDec_Cnt8_Init
  26:Generated_Source\PSoC4/QuadDec_Cnt8.c **** ********************************************************************************
  27:Generated_Source\PSoC4/QuadDec_Cnt8.c **** * Summary:
  28:Generated_Source\PSoC4/QuadDec_Cnt8.c **** *     Initialize to the schematic state
  29:Generated_Source\PSoC4/QuadDec_Cnt8.c **** * 
  30:Generated_Source\PSoC4/QuadDec_Cnt8.c **** * Parameters:  
ARM GAS  C:\Users\VIKTOR~1\AppData\Local\Temp\ccaLWjg4.s 			page 2


  31:Generated_Source\PSoC4/QuadDec_Cnt8.c **** *  void  
  32:Generated_Source\PSoC4/QuadDec_Cnt8.c **** *
  33:Generated_Source\PSoC4/QuadDec_Cnt8.c **** * Return: 
  34:Generated_Source\PSoC4/QuadDec_Cnt8.c **** *  void
  35:Generated_Source\PSoC4/QuadDec_Cnt8.c **** *
  36:Generated_Source\PSoC4/QuadDec_Cnt8.c **** *******************************************************************************/
  37:Generated_Source\PSoC4/QuadDec_Cnt8.c **** void QuadDec_Cnt8_Init(void) 
  38:Generated_Source\PSoC4/QuadDec_Cnt8.c **** {
  39:Generated_Source\PSoC4/QuadDec_Cnt8.c ****         #if (!QuadDec_Cnt8_UsingFixedFunction && !QuadDec_Cnt8_ControlRegRemoved)
  40:Generated_Source\PSoC4/QuadDec_Cnt8.c ****             uint8 ctrl;
  41:Generated_Source\PSoC4/QuadDec_Cnt8.c ****         #endif /* (!QuadDec_Cnt8_UsingFixedFunction && !QuadDec_Cnt8_ControlRegRemoved) */
  42:Generated_Source\PSoC4/QuadDec_Cnt8.c ****         
  43:Generated_Source\PSoC4/QuadDec_Cnt8.c ****         #if(!QuadDec_Cnt8_UsingFixedFunction) 
  44:Generated_Source\PSoC4/QuadDec_Cnt8.c ****             /* Interrupt State Backup for Critical Region*/
  45:Generated_Source\PSoC4/QuadDec_Cnt8.c ****             uint8 QuadDec_Cnt8_interruptState;
  46:Generated_Source\PSoC4/QuadDec_Cnt8.c ****         #endif /* (!QuadDec_Cnt8_UsingFixedFunction) */
  47:Generated_Source\PSoC4/QuadDec_Cnt8.c ****         
  48:Generated_Source\PSoC4/QuadDec_Cnt8.c ****         #if (QuadDec_Cnt8_UsingFixedFunction)
  49:Generated_Source\PSoC4/QuadDec_Cnt8.c ****             /* Clear all bits but the enable bit (if it's already set for Timer operation */
  50:Generated_Source\PSoC4/QuadDec_Cnt8.c ****             QuadDec_Cnt8_CONTROL &= QuadDec_Cnt8_CTRL_ENABLE;
  51:Generated_Source\PSoC4/QuadDec_Cnt8.c ****             
  52:Generated_Source\PSoC4/QuadDec_Cnt8.c ****             /* Clear the mode bits for continuous run mode */
  53:Generated_Source\PSoC4/QuadDec_Cnt8.c ****             #if (CY_PSOC5A)
  54:Generated_Source\PSoC4/QuadDec_Cnt8.c ****                 QuadDec_Cnt8_CONTROL2 &= ((uint8)(~QuadDec_Cnt8_CTRL_MODE_MASK));
  55:Generated_Source\PSoC4/QuadDec_Cnt8.c ****             #endif /* (CY_PSOC5A) */
  56:Generated_Source\PSoC4/QuadDec_Cnt8.c ****             #if (CY_PSOC3 || CY_PSOC5LP)
  57:Generated_Source\PSoC4/QuadDec_Cnt8.c ****                 QuadDec_Cnt8_CONTROL3 &= ((uint8)(~QuadDec_Cnt8_CTRL_MODE_MASK));                
  58:Generated_Source\PSoC4/QuadDec_Cnt8.c ****             #endif /* (CY_PSOC3 || CY_PSOC5LP) */
  59:Generated_Source\PSoC4/QuadDec_Cnt8.c ****             /* Check if One Shot mode is enabled i.e. RunMode !=0*/
  60:Generated_Source\PSoC4/QuadDec_Cnt8.c ****             #if (QuadDec_Cnt8_RunModeUsed != 0x0u)
  61:Generated_Source\PSoC4/QuadDec_Cnt8.c ****                 /* Set 3rd bit of Control register to enable one shot mode */
  62:Generated_Source\PSoC4/QuadDec_Cnt8.c ****                 QuadDec_Cnt8_CONTROL |= QuadDec_Cnt8_ONESHOT;
  63:Generated_Source\PSoC4/QuadDec_Cnt8.c ****             #endif /* (QuadDec_Cnt8_RunModeUsed != 0x0u) */
  64:Generated_Source\PSoC4/QuadDec_Cnt8.c ****             
  65:Generated_Source\PSoC4/QuadDec_Cnt8.c ****             /* Set the IRQ to use the status register interrupts */
  66:Generated_Source\PSoC4/QuadDec_Cnt8.c ****             QuadDec_Cnt8_CONTROL2 |= QuadDec_Cnt8_CTRL2_IRQ_SEL;
  67:Generated_Source\PSoC4/QuadDec_Cnt8.c ****             
  68:Generated_Source\PSoC4/QuadDec_Cnt8.c ****             /* Clear and Set SYNCTC and SYNCCMP bits of RT1 register */
  69:Generated_Source\PSoC4/QuadDec_Cnt8.c ****             QuadDec_Cnt8_RT1 &= ((uint8)(~QuadDec_Cnt8_RT1_MASK));
  70:Generated_Source\PSoC4/QuadDec_Cnt8.c ****             QuadDec_Cnt8_RT1 |= QuadDec_Cnt8_SYNC;     
  71:Generated_Source\PSoC4/QuadDec_Cnt8.c ****                     
  72:Generated_Source\PSoC4/QuadDec_Cnt8.c ****             /*Enable DSI Sync all all inputs of the Timer*/
  73:Generated_Source\PSoC4/QuadDec_Cnt8.c ****             QuadDec_Cnt8_RT1 &= ((uint8)(~QuadDec_Cnt8_SYNCDSI_MASK));
  74:Generated_Source\PSoC4/QuadDec_Cnt8.c ****             QuadDec_Cnt8_RT1 |= QuadDec_Cnt8_SYNCDSI_EN;
  75:Generated_Source\PSoC4/QuadDec_Cnt8.c **** 
  76:Generated_Source\PSoC4/QuadDec_Cnt8.c ****         #else
  77:Generated_Source\PSoC4/QuadDec_Cnt8.c ****             #if(!QuadDec_Cnt8_ControlRegRemoved)
  78:Generated_Source\PSoC4/QuadDec_Cnt8.c ****             /* Set the default compare mode defined in the parameter */
  79:Generated_Source\PSoC4/QuadDec_Cnt8.c ****             ctrl = QuadDec_Cnt8_CONTROL & ((uint8)(~QuadDec_Cnt8_CTRL_CMPMODE_MASK));
  80:Generated_Source\PSoC4/QuadDec_Cnt8.c ****             QuadDec_Cnt8_CONTROL = ctrl | QuadDec_Cnt8_DEFAULT_COMPARE_MODE;
  81:Generated_Source\PSoC4/QuadDec_Cnt8.c ****             
  82:Generated_Source\PSoC4/QuadDec_Cnt8.c ****             /* Set the default capture mode defined in the parameter */
  83:Generated_Source\PSoC4/QuadDec_Cnt8.c ****             ctrl = QuadDec_Cnt8_CONTROL & ((uint8)(~QuadDec_Cnt8_CTRL_CAPMODE_MASK));
  84:Generated_Source\PSoC4/QuadDec_Cnt8.c ****             
  85:Generated_Source\PSoC4/QuadDec_Cnt8.c ****             #if( 0 != QuadDec_Cnt8_CAPTURE_MODE_CONF)
  86:Generated_Source\PSoC4/QuadDec_Cnt8.c ****                 QuadDec_Cnt8_CONTROL = ctrl | QuadDec_Cnt8_DEFAULT_CAPTURE_MODE;
  87:Generated_Source\PSoC4/QuadDec_Cnt8.c ****             #else
ARM GAS  C:\Users\VIKTOR~1\AppData\Local\Temp\ccaLWjg4.s 			page 3


  88:Generated_Source\PSoC4/QuadDec_Cnt8.c ****                 QuadDec_Cnt8_CONTROL = ctrl;
  89:Generated_Source\PSoC4/QuadDec_Cnt8.c ****             #endif /* 0 != QuadDec_Cnt8_CAPTURE_MODE */ 
  90:Generated_Source\PSoC4/QuadDec_Cnt8.c ****             
  91:Generated_Source\PSoC4/QuadDec_Cnt8.c ****             #endif /* (!QuadDec_Cnt8_ControlRegRemoved) */
  92:Generated_Source\PSoC4/QuadDec_Cnt8.c ****         #endif /* (QuadDec_Cnt8_UsingFixedFunction) */
  93:Generated_Source\PSoC4/QuadDec_Cnt8.c ****         
  94:Generated_Source\PSoC4/QuadDec_Cnt8.c ****         /* Clear all data in the FIFO's */
  95:Generated_Source\PSoC4/QuadDec_Cnt8.c ****         #if (!QuadDec_Cnt8_UsingFixedFunction)
  96:Generated_Source\PSoC4/QuadDec_Cnt8.c ****             QuadDec_Cnt8_ClearFIFO();
  97:Generated_Source\PSoC4/QuadDec_Cnt8.c ****         #endif /* (!QuadDec_Cnt8_UsingFixedFunction) */
  98:Generated_Source\PSoC4/QuadDec_Cnt8.c ****         
  99:Generated_Source\PSoC4/QuadDec_Cnt8.c ****         /* Set Initial values from Configuration */
 100:Generated_Source\PSoC4/QuadDec_Cnt8.c ****         QuadDec_Cnt8_WritePeriod(QuadDec_Cnt8_INIT_PERIOD_VALUE);
 101:Generated_Source\PSoC4/QuadDec_Cnt8.c ****         #if (!(QuadDec_Cnt8_UsingFixedFunction && (CY_PSOC5A)))
 102:Generated_Source\PSoC4/QuadDec_Cnt8.c ****             QuadDec_Cnt8_WriteCounter(QuadDec_Cnt8_INIT_COUNTER_VALUE);
 103:Generated_Source\PSoC4/QuadDec_Cnt8.c ****         #endif /* (!(QuadDec_Cnt8_UsingFixedFunction && (CY_PSOC5A))) */
 104:Generated_Source\PSoC4/QuadDec_Cnt8.c ****         QuadDec_Cnt8_SetInterruptMode(QuadDec_Cnt8_INIT_INTERRUPTS_MASK);
 105:Generated_Source\PSoC4/QuadDec_Cnt8.c ****         
 106:Generated_Source\PSoC4/QuadDec_Cnt8.c ****         #if (!QuadDec_Cnt8_UsingFixedFunction)
 107:Generated_Source\PSoC4/QuadDec_Cnt8.c ****             /* Read the status register to clear the unwanted interrupts */
 108:Generated_Source\PSoC4/QuadDec_Cnt8.c ****             (void)QuadDec_Cnt8_ReadStatusRegister();
 109:Generated_Source\PSoC4/QuadDec_Cnt8.c ****             /* Set the compare value (only available to non-fixed function implementation */
 110:Generated_Source\PSoC4/QuadDec_Cnt8.c ****             QuadDec_Cnt8_WriteCompare(QuadDec_Cnt8_INIT_COMPARE_VALUE);
 111:Generated_Source\PSoC4/QuadDec_Cnt8.c ****             /* Use the interrupt output of the status register for IRQ output */
 112:Generated_Source\PSoC4/QuadDec_Cnt8.c ****             
 113:Generated_Source\PSoC4/QuadDec_Cnt8.c ****             /* CyEnterCriticalRegion and CyExitCriticalRegion are used to mark following region cri
 114:Generated_Source\PSoC4/QuadDec_Cnt8.c ****             /* Enter Critical Region*/
 115:Generated_Source\PSoC4/QuadDec_Cnt8.c ****             QuadDec_Cnt8_interruptState = CyEnterCriticalSection();
 116:Generated_Source\PSoC4/QuadDec_Cnt8.c ****             
 117:Generated_Source\PSoC4/QuadDec_Cnt8.c ****             QuadDec_Cnt8_STATUS_AUX_CTRL |= QuadDec_Cnt8_STATUS_ACTL_INT_EN_MASK;
 118:Generated_Source\PSoC4/QuadDec_Cnt8.c ****             
 119:Generated_Source\PSoC4/QuadDec_Cnt8.c ****             /* Exit Critical Region*/
 120:Generated_Source\PSoC4/QuadDec_Cnt8.c ****             CyExitCriticalSection(QuadDec_Cnt8_interruptState);
 121:Generated_Source\PSoC4/QuadDec_Cnt8.c ****             
 122:Generated_Source\PSoC4/QuadDec_Cnt8.c ****         #endif /* (!QuadDec_Cnt8_UsingFixedFunction) */
 123:Generated_Source\PSoC4/QuadDec_Cnt8.c **** }
 124:Generated_Source\PSoC4/QuadDec_Cnt8.c **** 
 125:Generated_Source\PSoC4/QuadDec_Cnt8.c **** 
 126:Generated_Source\PSoC4/QuadDec_Cnt8.c **** /*******************************************************************************
 127:Generated_Source\PSoC4/QuadDec_Cnt8.c **** * Function Name: QuadDec_Cnt8_Enable
 128:Generated_Source\PSoC4/QuadDec_Cnt8.c **** ********************************************************************************
 129:Generated_Source\PSoC4/QuadDec_Cnt8.c **** * Summary:
 130:Generated_Source\PSoC4/QuadDec_Cnt8.c **** *     Enable the Counter
 131:Generated_Source\PSoC4/QuadDec_Cnt8.c **** * 
 132:Generated_Source\PSoC4/QuadDec_Cnt8.c **** * Parameters:  
 133:Generated_Source\PSoC4/QuadDec_Cnt8.c **** *  void  
 134:Generated_Source\PSoC4/QuadDec_Cnt8.c **** *
 135:Generated_Source\PSoC4/QuadDec_Cnt8.c **** * Return: 
 136:Generated_Source\PSoC4/QuadDec_Cnt8.c **** *  void
 137:Generated_Source\PSoC4/QuadDec_Cnt8.c **** *
 138:Generated_Source\PSoC4/QuadDec_Cnt8.c **** * Side Effects: 
 139:Generated_Source\PSoC4/QuadDec_Cnt8.c **** *   If the Enable mode is set to Hardware only then this function has no effect 
 140:Generated_Source\PSoC4/QuadDec_Cnt8.c **** *   on the operation of the counter.
 141:Generated_Source\PSoC4/QuadDec_Cnt8.c **** *
 142:Generated_Source\PSoC4/QuadDec_Cnt8.c **** *******************************************************************************/
 143:Generated_Source\PSoC4/QuadDec_Cnt8.c **** void QuadDec_Cnt8_Enable(void) 
 144:Generated_Source\PSoC4/QuadDec_Cnt8.c **** {
ARM GAS  C:\Users\VIKTOR~1\AppData\Local\Temp\ccaLWjg4.s 			page 4


  28              		.loc 1 144 0
  29              		.cfi_startproc
  30              		@ args = 0, pretend = 0, frame = 0
  31              		@ frame_needed = 0, uses_anonymous_args = 0
  32              		@ link register save eliminated.
 145:Generated_Source\PSoC4/QuadDec_Cnt8.c ****     /* Globally Enable the Fixed Function Block chosen */
 146:Generated_Source\PSoC4/QuadDec_Cnt8.c ****     #if (QuadDec_Cnt8_UsingFixedFunction)
 147:Generated_Source\PSoC4/QuadDec_Cnt8.c ****         QuadDec_Cnt8_GLOBAL_ENABLE |= QuadDec_Cnt8_BLOCK_EN_MASK;
 148:Generated_Source\PSoC4/QuadDec_Cnt8.c ****         QuadDec_Cnt8_GLOBAL_STBY_ENABLE |= QuadDec_Cnt8_BLOCK_STBY_EN_MASK;
 149:Generated_Source\PSoC4/QuadDec_Cnt8.c ****     #endif /* (QuadDec_Cnt8_UsingFixedFunction) */  
 150:Generated_Source\PSoC4/QuadDec_Cnt8.c ****         
 151:Generated_Source\PSoC4/QuadDec_Cnt8.c ****     /* Enable the counter from the control register  */
 152:Generated_Source\PSoC4/QuadDec_Cnt8.c ****     /* If Fixed Function then make sure Mode is set correctly */
 153:Generated_Source\PSoC4/QuadDec_Cnt8.c ****     /* else make sure reset is clear */
 154:Generated_Source\PSoC4/QuadDec_Cnt8.c ****     #if(!QuadDec_Cnt8_ControlRegRemoved || QuadDec_Cnt8_UsingFixedFunction)
 155:Generated_Source\PSoC4/QuadDec_Cnt8.c ****         QuadDec_Cnt8_CONTROL |= QuadDec_Cnt8_CTRL_ENABLE;                
  33              		.loc 1 155 0
  34 0000 034A     		ldr	r2, .L2
  35 0002 1178     		ldrb	r1, [r2]
  36 0004 8023     		movs	r3, #128
  37 0006 5B42     		rsbs	r3, r3, #0
  38 0008 0B43     		orrs	r3, r1
  39 000a DBB2     		uxtb	r3, r3
  40 000c 1370     		strb	r3, [r2]
 156:Generated_Source\PSoC4/QuadDec_Cnt8.c ****     #endif /* (!QuadDec_Cnt8_ControlRegRemoved || QuadDec_Cnt8_UsingFixedFunction) */
 157:Generated_Source\PSoC4/QuadDec_Cnt8.c ****     
 158:Generated_Source\PSoC4/QuadDec_Cnt8.c **** }
  41              		.loc 1 158 0
  42              		@ sp needed
  43 000e 7047     		bx	lr
  44              	.L3:
  45              		.align	2
  46              	.L2:
  47 0010 71000F40 		.word	1074724977
  48              		.cfi_endproc
  49              	.LFE2:
  50              		.size	QuadDec_Cnt8_Enable, .-QuadDec_Cnt8_Enable
  51              		.section	.text.QuadDec_Cnt8_Stop,"ax",%progbits
  52              		.align	2
  53              		.global	QuadDec_Cnt8_Stop
  54              		.code	16
  55              		.thumb_func
  56              		.type	QuadDec_Cnt8_Stop, %function
  57              	QuadDec_Cnt8_Stop:
  58              	.LFB4:
 159:Generated_Source\PSoC4/QuadDec_Cnt8.c **** 
 160:Generated_Source\PSoC4/QuadDec_Cnt8.c **** 
 161:Generated_Source\PSoC4/QuadDec_Cnt8.c **** /*******************************************************************************
 162:Generated_Source\PSoC4/QuadDec_Cnt8.c **** * Function Name: QuadDec_Cnt8_Start
 163:Generated_Source\PSoC4/QuadDec_Cnt8.c **** ********************************************************************************
 164:Generated_Source\PSoC4/QuadDec_Cnt8.c **** * Summary:
 165:Generated_Source\PSoC4/QuadDec_Cnt8.c **** *  Enables the counter for operation 
 166:Generated_Source\PSoC4/QuadDec_Cnt8.c **** *
 167:Generated_Source\PSoC4/QuadDec_Cnt8.c **** * Parameters:  
 168:Generated_Source\PSoC4/QuadDec_Cnt8.c **** *  void  
 169:Generated_Source\PSoC4/QuadDec_Cnt8.c **** *
 170:Generated_Source\PSoC4/QuadDec_Cnt8.c **** * Return: 
ARM GAS  C:\Users\VIKTOR~1\AppData\Local\Temp\ccaLWjg4.s 			page 5


 171:Generated_Source\PSoC4/QuadDec_Cnt8.c **** *  void
 172:Generated_Source\PSoC4/QuadDec_Cnt8.c **** *
 173:Generated_Source\PSoC4/QuadDec_Cnt8.c **** * Global variables:
 174:Generated_Source\PSoC4/QuadDec_Cnt8.c **** *  QuadDec_Cnt8_initVar: Is modified when this function is called for the  
 175:Generated_Source\PSoC4/QuadDec_Cnt8.c **** *   first time. Is used to ensure that initialization happens only once.
 176:Generated_Source\PSoC4/QuadDec_Cnt8.c **** *
 177:Generated_Source\PSoC4/QuadDec_Cnt8.c **** *******************************************************************************/
 178:Generated_Source\PSoC4/QuadDec_Cnt8.c **** void QuadDec_Cnt8_Start(void) 
 179:Generated_Source\PSoC4/QuadDec_Cnt8.c **** {
 180:Generated_Source\PSoC4/QuadDec_Cnt8.c ****     if(QuadDec_Cnt8_initVar == 0u)
 181:Generated_Source\PSoC4/QuadDec_Cnt8.c ****     {
 182:Generated_Source\PSoC4/QuadDec_Cnt8.c ****         QuadDec_Cnt8_Init();
 183:Generated_Source\PSoC4/QuadDec_Cnt8.c ****         
 184:Generated_Source\PSoC4/QuadDec_Cnt8.c ****         QuadDec_Cnt8_initVar = 1u; /* Clear this bit for Initialization */        
 185:Generated_Source\PSoC4/QuadDec_Cnt8.c ****     }
 186:Generated_Source\PSoC4/QuadDec_Cnt8.c ****     
 187:Generated_Source\PSoC4/QuadDec_Cnt8.c ****     /* Enable the Counter */
 188:Generated_Source\PSoC4/QuadDec_Cnt8.c ****     QuadDec_Cnt8_Enable();        
 189:Generated_Source\PSoC4/QuadDec_Cnt8.c **** }
 190:Generated_Source\PSoC4/QuadDec_Cnt8.c **** 
 191:Generated_Source\PSoC4/QuadDec_Cnt8.c **** 
 192:Generated_Source\PSoC4/QuadDec_Cnt8.c **** /*******************************************************************************
 193:Generated_Source\PSoC4/QuadDec_Cnt8.c **** * Function Name: QuadDec_Cnt8_Stop
 194:Generated_Source\PSoC4/QuadDec_Cnt8.c **** ********************************************************************************
 195:Generated_Source\PSoC4/QuadDec_Cnt8.c **** * Summary:
 196:Generated_Source\PSoC4/QuadDec_Cnt8.c **** * Halts the counter, but does not change any modes or disable interrupts.
 197:Generated_Source\PSoC4/QuadDec_Cnt8.c **** *
 198:Generated_Source\PSoC4/QuadDec_Cnt8.c **** * Parameters:  
 199:Generated_Source\PSoC4/QuadDec_Cnt8.c **** *  void  
 200:Generated_Source\PSoC4/QuadDec_Cnt8.c **** *
 201:Generated_Source\PSoC4/QuadDec_Cnt8.c **** * Return: 
 202:Generated_Source\PSoC4/QuadDec_Cnt8.c **** *  void
 203:Generated_Source\PSoC4/QuadDec_Cnt8.c **** *
 204:Generated_Source\PSoC4/QuadDec_Cnt8.c **** * Side Effects: If the Enable mode is set to Hardware only then this function
 205:Generated_Source\PSoC4/QuadDec_Cnt8.c **** *               has no effect on the operation of the counter.
 206:Generated_Source\PSoC4/QuadDec_Cnt8.c **** *
 207:Generated_Source\PSoC4/QuadDec_Cnt8.c **** *******************************************************************************/
 208:Generated_Source\PSoC4/QuadDec_Cnt8.c **** void QuadDec_Cnt8_Stop(void) 
 209:Generated_Source\PSoC4/QuadDec_Cnt8.c **** {
  59              		.loc 1 209 0
  60              		.cfi_startproc
  61              		@ args = 0, pretend = 0, frame = 0
  62              		@ frame_needed = 0, uses_anonymous_args = 0
  63              		@ link register save eliminated.
 210:Generated_Source\PSoC4/QuadDec_Cnt8.c ****     /* Disable Counter */
 211:Generated_Source\PSoC4/QuadDec_Cnt8.c ****     #if(!QuadDec_Cnt8_ControlRegRemoved || QuadDec_Cnt8_UsingFixedFunction)
 212:Generated_Source\PSoC4/QuadDec_Cnt8.c ****         QuadDec_Cnt8_CONTROL &= ((uint8)(~QuadDec_Cnt8_CTRL_ENABLE));        
  64              		.loc 1 212 0
  65 0000 024A     		ldr	r2, .L5
  66 0002 1178     		ldrb	r1, [r2]
  67 0004 7F23     		movs	r3, #127
  68 0006 0B40     		ands	r3, r1
  69 0008 1370     		strb	r3, [r2]
 213:Generated_Source\PSoC4/QuadDec_Cnt8.c ****     #endif /* (!QuadDec_Cnt8_ControlRegRemoved || QuadDec_Cnt8_UsingFixedFunction) */
 214:Generated_Source\PSoC4/QuadDec_Cnt8.c ****     
 215:Generated_Source\PSoC4/QuadDec_Cnt8.c ****     /* Globally disable the Fixed Function Block chosen */
 216:Generated_Source\PSoC4/QuadDec_Cnt8.c ****     #if (QuadDec_Cnt8_UsingFixedFunction)
ARM GAS  C:\Users\VIKTOR~1\AppData\Local\Temp\ccaLWjg4.s 			page 6


 217:Generated_Source\PSoC4/QuadDec_Cnt8.c ****         QuadDec_Cnt8_GLOBAL_ENABLE &= ((uint8)(~QuadDec_Cnt8_BLOCK_EN_MASK));
 218:Generated_Source\PSoC4/QuadDec_Cnt8.c ****         QuadDec_Cnt8_GLOBAL_STBY_ENABLE &= ((uint8)(~QuadDec_Cnt8_BLOCK_STBY_EN_MASK));
 219:Generated_Source\PSoC4/QuadDec_Cnt8.c ****     #endif /* (QuadDec_Cnt8_UsingFixedFunction) */
 220:Generated_Source\PSoC4/QuadDec_Cnt8.c **** }
  70              		.loc 1 220 0
  71              		@ sp needed
  72 000a 7047     		bx	lr
  73              	.L6:
  74              		.align	2
  75              	.L5:
  76 000c 71000F40 		.word	1074724977
  77              		.cfi_endproc
  78              	.LFE4:
  79              		.size	QuadDec_Cnt8_Stop, .-QuadDec_Cnt8_Stop
  80              		.section	.text.QuadDec_Cnt8_SetInterruptMode,"ax",%progbits
  81              		.align	2
  82              		.global	QuadDec_Cnt8_SetInterruptMode
  83              		.code	16
  84              		.thumb_func
  85              		.type	QuadDec_Cnt8_SetInterruptMode, %function
  86              	QuadDec_Cnt8_SetInterruptMode:
  87              	.LFB5:
 221:Generated_Source\PSoC4/QuadDec_Cnt8.c **** 
 222:Generated_Source\PSoC4/QuadDec_Cnt8.c **** 
 223:Generated_Source\PSoC4/QuadDec_Cnt8.c **** /*******************************************************************************
 224:Generated_Source\PSoC4/QuadDec_Cnt8.c **** * Function Name: QuadDec_Cnt8_SetInterruptMode
 225:Generated_Source\PSoC4/QuadDec_Cnt8.c **** ********************************************************************************
 226:Generated_Source\PSoC4/QuadDec_Cnt8.c **** * Summary:
 227:Generated_Source\PSoC4/QuadDec_Cnt8.c **** * Configures which interrupt sources are enabled to generate the final interrupt
 228:Generated_Source\PSoC4/QuadDec_Cnt8.c **** *
 229:Generated_Source\PSoC4/QuadDec_Cnt8.c **** * Parameters:  
 230:Generated_Source\PSoC4/QuadDec_Cnt8.c **** *  InterruptsMask: This parameter is an or'd collection of the status bits
 231:Generated_Source\PSoC4/QuadDec_Cnt8.c **** *                   which will be allowed to generate the counters interrupt.   
 232:Generated_Source\PSoC4/QuadDec_Cnt8.c **** *
 233:Generated_Source\PSoC4/QuadDec_Cnt8.c **** * Return: 
 234:Generated_Source\PSoC4/QuadDec_Cnt8.c **** *  void
 235:Generated_Source\PSoC4/QuadDec_Cnt8.c **** *
 236:Generated_Source\PSoC4/QuadDec_Cnt8.c **** *******************************************************************************/
 237:Generated_Source\PSoC4/QuadDec_Cnt8.c **** void QuadDec_Cnt8_SetInterruptMode(uint8 interruptsMask) 
 238:Generated_Source\PSoC4/QuadDec_Cnt8.c **** {
  88              		.loc 1 238 0
  89              		.cfi_startproc
  90              		@ args = 0, pretend = 0, frame = 0
  91              		@ frame_needed = 0, uses_anonymous_args = 0
  92              		@ link register save eliminated.
  93              	.LVL0:
 239:Generated_Source\PSoC4/QuadDec_Cnt8.c ****     QuadDec_Cnt8_STATUS_MASK = interruptsMask;
  94              		.loc 1 239 0
  95 0000 014B     		ldr	r3, .L8
  96 0002 1870     		strb	r0, [r3]
 240:Generated_Source\PSoC4/QuadDec_Cnt8.c **** }
  97              		.loc 1 240 0
  98              		@ sp needed
  99 0004 7047     		bx	lr
 100              	.L9:
 101 0006 C046     		.align	2
 102              	.L8:
ARM GAS  C:\Users\VIKTOR~1\AppData\Local\Temp\ccaLWjg4.s 			page 7


 103 0008 82000F40 		.word	1074724994
 104              		.cfi_endproc
 105              	.LFE5:
 106              		.size	QuadDec_Cnt8_SetInterruptMode, .-QuadDec_Cnt8_SetInterruptMode
 107              		.section	.text.QuadDec_Cnt8_ReadStatusRegister,"ax",%progbits
 108              		.align	2
 109              		.global	QuadDec_Cnt8_ReadStatusRegister
 110              		.code	16
 111              		.thumb_func
 112              		.type	QuadDec_Cnt8_ReadStatusRegister, %function
 113              	QuadDec_Cnt8_ReadStatusRegister:
 114              	.LFB6:
 241:Generated_Source\PSoC4/QuadDec_Cnt8.c **** 
 242:Generated_Source\PSoC4/QuadDec_Cnt8.c **** 
 243:Generated_Source\PSoC4/QuadDec_Cnt8.c **** /*******************************************************************************
 244:Generated_Source\PSoC4/QuadDec_Cnt8.c **** * Function Name: QuadDec_Cnt8_ReadStatusRegister
 245:Generated_Source\PSoC4/QuadDec_Cnt8.c **** ********************************************************************************
 246:Generated_Source\PSoC4/QuadDec_Cnt8.c **** * Summary:
 247:Generated_Source\PSoC4/QuadDec_Cnt8.c **** *   Reads the status register and returns it's state. This function should use
 248:Generated_Source\PSoC4/QuadDec_Cnt8.c **** *       defined types for the bit-field information as the bits in this
 249:Generated_Source\PSoC4/QuadDec_Cnt8.c **** *       register may be permuteable.
 250:Generated_Source\PSoC4/QuadDec_Cnt8.c **** *
 251:Generated_Source\PSoC4/QuadDec_Cnt8.c **** * Parameters:  
 252:Generated_Source\PSoC4/QuadDec_Cnt8.c **** *  void
 253:Generated_Source\PSoC4/QuadDec_Cnt8.c **** *
 254:Generated_Source\PSoC4/QuadDec_Cnt8.c **** * Return: 
 255:Generated_Source\PSoC4/QuadDec_Cnt8.c **** *  (uint8) The contents of the status register
 256:Generated_Source\PSoC4/QuadDec_Cnt8.c **** *
 257:Generated_Source\PSoC4/QuadDec_Cnt8.c **** * Side Effects:
 258:Generated_Source\PSoC4/QuadDec_Cnt8.c **** *   Status register bits may be clear on read. 
 259:Generated_Source\PSoC4/QuadDec_Cnt8.c **** *
 260:Generated_Source\PSoC4/QuadDec_Cnt8.c **** *******************************************************************************/
 261:Generated_Source\PSoC4/QuadDec_Cnt8.c **** uint8   QuadDec_Cnt8_ReadStatusRegister(void) 
 262:Generated_Source\PSoC4/QuadDec_Cnt8.c **** {
 115              		.loc 1 262 0
 116              		.cfi_startproc
 117              		@ args = 0, pretend = 0, frame = 0
 118              		@ frame_needed = 0, uses_anonymous_args = 0
 119              		@ link register save eliminated.
 263:Generated_Source\PSoC4/QuadDec_Cnt8.c ****     return QuadDec_Cnt8_STATUS;
 120              		.loc 1 263 0
 121 0000 014B     		ldr	r3, .L11
 122 0002 1878     		ldrb	r0, [r3]
 123 0004 C0B2     		uxtb	r0, r0
 264:Generated_Source\PSoC4/QuadDec_Cnt8.c **** }
 124              		.loc 1 264 0
 125              		@ sp needed
 126 0006 7047     		bx	lr
 127              	.L12:
 128              		.align	2
 129              	.L11:
 130 0008 62000F40 		.word	1074724962
 131              		.cfi_endproc
 132              	.LFE6:
 133              		.size	QuadDec_Cnt8_ReadStatusRegister, .-QuadDec_Cnt8_ReadStatusRegister
 134              		.section	.text.QuadDec_Cnt8_ReadControlRegister,"ax",%progbits
 135              		.align	2
ARM GAS  C:\Users\VIKTOR~1\AppData\Local\Temp\ccaLWjg4.s 			page 8


 136              		.global	QuadDec_Cnt8_ReadControlRegister
 137              		.code	16
 138              		.thumb_func
 139              		.type	QuadDec_Cnt8_ReadControlRegister, %function
 140              	QuadDec_Cnt8_ReadControlRegister:
 141              	.LFB7:
 265:Generated_Source\PSoC4/QuadDec_Cnt8.c **** 
 266:Generated_Source\PSoC4/QuadDec_Cnt8.c **** 
 267:Generated_Source\PSoC4/QuadDec_Cnt8.c **** #if(!QuadDec_Cnt8_ControlRegRemoved)
 268:Generated_Source\PSoC4/QuadDec_Cnt8.c **** /*******************************************************************************
 269:Generated_Source\PSoC4/QuadDec_Cnt8.c **** * Function Name: QuadDec_Cnt8_ReadControlRegister
 270:Generated_Source\PSoC4/QuadDec_Cnt8.c **** ********************************************************************************
 271:Generated_Source\PSoC4/QuadDec_Cnt8.c **** * Summary:
 272:Generated_Source\PSoC4/QuadDec_Cnt8.c **** *   Reads the control register and returns it's state. This function should use
 273:Generated_Source\PSoC4/QuadDec_Cnt8.c **** *       defined types for the bit-field information as the bits in this
 274:Generated_Source\PSoC4/QuadDec_Cnt8.c **** *       register may be permuteable.
 275:Generated_Source\PSoC4/QuadDec_Cnt8.c **** *
 276:Generated_Source\PSoC4/QuadDec_Cnt8.c **** * Parameters:  
 277:Generated_Source\PSoC4/QuadDec_Cnt8.c **** *  void
 278:Generated_Source\PSoC4/QuadDec_Cnt8.c **** *
 279:Generated_Source\PSoC4/QuadDec_Cnt8.c **** * Return: 
 280:Generated_Source\PSoC4/QuadDec_Cnt8.c **** *  (uint8) The contents of the control register
 281:Generated_Source\PSoC4/QuadDec_Cnt8.c **** *
 282:Generated_Source\PSoC4/QuadDec_Cnt8.c **** *******************************************************************************/
 283:Generated_Source\PSoC4/QuadDec_Cnt8.c **** uint8   QuadDec_Cnt8_ReadControlRegister(void) 
 284:Generated_Source\PSoC4/QuadDec_Cnt8.c **** {
 142              		.loc 1 284 0
 143              		.cfi_startproc
 144              		@ args = 0, pretend = 0, frame = 0
 145              		@ frame_needed = 0, uses_anonymous_args = 0
 146              		@ link register save eliminated.
 285:Generated_Source\PSoC4/QuadDec_Cnt8.c ****     return QuadDec_Cnt8_CONTROL;
 147              		.loc 1 285 0
 148 0000 014B     		ldr	r3, .L14
 149 0002 1878     		ldrb	r0, [r3]
 150 0004 C0B2     		uxtb	r0, r0
 286:Generated_Source\PSoC4/QuadDec_Cnt8.c **** }
 151              		.loc 1 286 0
 152              		@ sp needed
 153 0006 7047     		bx	lr
 154              	.L15:
 155              		.align	2
 156              	.L14:
 157 0008 71000F40 		.word	1074724977
 158              		.cfi_endproc
 159              	.LFE7:
 160              		.size	QuadDec_Cnt8_ReadControlRegister, .-QuadDec_Cnt8_ReadControlRegister
 161              		.section	.text.QuadDec_Cnt8_WriteControlRegister,"ax",%progbits
 162              		.align	2
 163              		.global	QuadDec_Cnt8_WriteControlRegister
 164              		.code	16
 165              		.thumb_func
 166              		.type	QuadDec_Cnt8_WriteControlRegister, %function
 167              	QuadDec_Cnt8_WriteControlRegister:
 168              	.LFB8:
 287:Generated_Source\PSoC4/QuadDec_Cnt8.c **** 
 288:Generated_Source\PSoC4/QuadDec_Cnt8.c **** 
ARM GAS  C:\Users\VIKTOR~1\AppData\Local\Temp\ccaLWjg4.s 			page 9


 289:Generated_Source\PSoC4/QuadDec_Cnt8.c **** /*******************************************************************************
 290:Generated_Source\PSoC4/QuadDec_Cnt8.c **** * Function Name: QuadDec_Cnt8_WriteControlRegister
 291:Generated_Source\PSoC4/QuadDec_Cnt8.c **** ********************************************************************************
 292:Generated_Source\PSoC4/QuadDec_Cnt8.c **** * Summary:
 293:Generated_Source\PSoC4/QuadDec_Cnt8.c **** *   Sets the bit-field of the control register.  This function should use
 294:Generated_Source\PSoC4/QuadDec_Cnt8.c **** *       defined types for the bit-field information as the bits in this
 295:Generated_Source\PSoC4/QuadDec_Cnt8.c **** *       register may be permuteable.
 296:Generated_Source\PSoC4/QuadDec_Cnt8.c **** *
 297:Generated_Source\PSoC4/QuadDec_Cnt8.c **** * Parameters:  
 298:Generated_Source\PSoC4/QuadDec_Cnt8.c **** *  void
 299:Generated_Source\PSoC4/QuadDec_Cnt8.c **** *
 300:Generated_Source\PSoC4/QuadDec_Cnt8.c **** * Return: 
 301:Generated_Source\PSoC4/QuadDec_Cnt8.c **** *  (uint8) The contents of the control register
 302:Generated_Source\PSoC4/QuadDec_Cnt8.c **** *
 303:Generated_Source\PSoC4/QuadDec_Cnt8.c **** *******************************************************************************/
 304:Generated_Source\PSoC4/QuadDec_Cnt8.c **** void    QuadDec_Cnt8_WriteControlRegister(uint8 control) 
 305:Generated_Source\PSoC4/QuadDec_Cnt8.c **** {
 169              		.loc 1 305 0
 170              		.cfi_startproc
 171              		@ args = 0, pretend = 0, frame = 0
 172              		@ frame_needed = 0, uses_anonymous_args = 0
 173              		@ link register save eliminated.
 174              	.LVL1:
 306:Generated_Source\PSoC4/QuadDec_Cnt8.c ****     QuadDec_Cnt8_CONTROL = control;
 175              		.loc 1 306 0
 176 0000 014B     		ldr	r3, .L17
 177 0002 1870     		strb	r0, [r3]
 307:Generated_Source\PSoC4/QuadDec_Cnt8.c **** }
 178              		.loc 1 307 0
 179              		@ sp needed
 180 0004 7047     		bx	lr
 181              	.L18:
 182 0006 C046     		.align	2
 183              	.L17:
 184 0008 71000F40 		.word	1074724977
 185              		.cfi_endproc
 186              	.LFE8:
 187              		.size	QuadDec_Cnt8_WriteControlRegister, .-QuadDec_Cnt8_WriteControlRegister
 188              		.section	.text.QuadDec_Cnt8_WriteCounter,"ax",%progbits
 189              		.align	2
 190              		.global	QuadDec_Cnt8_WriteCounter
 191              		.code	16
 192              		.thumb_func
 193              		.type	QuadDec_Cnt8_WriteCounter, %function
 194              	QuadDec_Cnt8_WriteCounter:
 195              	.LFB9:
 308:Generated_Source\PSoC4/QuadDec_Cnt8.c **** 
 309:Generated_Source\PSoC4/QuadDec_Cnt8.c **** #endif  /* (!QuadDec_Cnt8_ControlRegRemoved) */
 310:Generated_Source\PSoC4/QuadDec_Cnt8.c **** 
 311:Generated_Source\PSoC4/QuadDec_Cnt8.c **** 
 312:Generated_Source\PSoC4/QuadDec_Cnt8.c **** #if (!(QuadDec_Cnt8_UsingFixedFunction && (CY_PSOC5A)))
 313:Generated_Source\PSoC4/QuadDec_Cnt8.c **** /*******************************************************************************
 314:Generated_Source\PSoC4/QuadDec_Cnt8.c **** * Function Name: QuadDec_Cnt8_WriteCounter
 315:Generated_Source\PSoC4/QuadDec_Cnt8.c **** ********************************************************************************
 316:Generated_Source\PSoC4/QuadDec_Cnt8.c **** * Summary:
 317:Generated_Source\PSoC4/QuadDec_Cnt8.c **** *   This funtion is used to set the counter to a specific value
 318:Generated_Source\PSoC4/QuadDec_Cnt8.c **** *
ARM GAS  C:\Users\VIKTOR~1\AppData\Local\Temp\ccaLWjg4.s 			page 10


 319:Generated_Source\PSoC4/QuadDec_Cnt8.c **** * Parameters:  
 320:Generated_Source\PSoC4/QuadDec_Cnt8.c **** *  counter:  New counter value. 
 321:Generated_Source\PSoC4/QuadDec_Cnt8.c **** *
 322:Generated_Source\PSoC4/QuadDec_Cnt8.c **** * Return: 
 323:Generated_Source\PSoC4/QuadDec_Cnt8.c **** *  void 
 324:Generated_Source\PSoC4/QuadDec_Cnt8.c **** *
 325:Generated_Source\PSoC4/QuadDec_Cnt8.c **** *******************************************************************************/
 326:Generated_Source\PSoC4/QuadDec_Cnt8.c **** void QuadDec_Cnt8_WriteCounter(uint8 counter) \
 327:Generated_Source\PSoC4/QuadDec_Cnt8.c ****                                    
 328:Generated_Source\PSoC4/QuadDec_Cnt8.c **** {
 196              		.loc 1 328 0
 197              		.cfi_startproc
 198              		@ args = 0, pretend = 0, frame = 0
 199              		@ frame_needed = 0, uses_anonymous_args = 0
 200              		@ link register save eliminated.
 201              	.LVL2:
 329:Generated_Source\PSoC4/QuadDec_Cnt8.c ****     #if(QuadDec_Cnt8_UsingFixedFunction)
 330:Generated_Source\PSoC4/QuadDec_Cnt8.c ****         /* assert if block is already enabled */
 331:Generated_Source\PSoC4/QuadDec_Cnt8.c ****         CYASSERT (0u == (QuadDec_Cnt8_GLOBAL_ENABLE & QuadDec_Cnt8_BLOCK_EN_MASK));
 332:Generated_Source\PSoC4/QuadDec_Cnt8.c ****         /* If block is disabled, enable it and then write the counter */
 333:Generated_Source\PSoC4/QuadDec_Cnt8.c ****         QuadDec_Cnt8_GLOBAL_ENABLE |= QuadDec_Cnt8_BLOCK_EN_MASK;
 334:Generated_Source\PSoC4/QuadDec_Cnt8.c ****         CY_SET_REG16(QuadDec_Cnt8_COUNTER_LSB_PTR, (uint16)counter);
 335:Generated_Source\PSoC4/QuadDec_Cnt8.c ****         QuadDec_Cnt8_GLOBAL_ENABLE &= ((uint8)(~QuadDec_Cnt8_BLOCK_EN_MASK));
 336:Generated_Source\PSoC4/QuadDec_Cnt8.c ****     #else
 337:Generated_Source\PSoC4/QuadDec_Cnt8.c ****         CY_SET_REG8(QuadDec_Cnt8_COUNTER_LSB_PTR, counter);
 202              		.loc 1 337 0
 203 0000 014B     		ldr	r3, .L20
 204 0002 1870     		strb	r0, [r3]
 338:Generated_Source\PSoC4/QuadDec_Cnt8.c ****     #endif /* (QuadDec_Cnt8_UsingFixedFunction) */
 339:Generated_Source\PSoC4/QuadDec_Cnt8.c **** }
 205              		.loc 1 339 0
 206              		@ sp needed
 207 0004 7047     		bx	lr
 208              	.L21:
 209 0006 C046     		.align	2
 210              	.L20:
 211 0008 01000F40 		.word	1074724865
 212              		.cfi_endproc
 213              	.LFE9:
 214              		.size	QuadDec_Cnt8_WriteCounter, .-QuadDec_Cnt8_WriteCounter
 215              		.section	.text.QuadDec_Cnt8_ReadCounter,"ax",%progbits
 216              		.align	2
 217              		.global	QuadDec_Cnt8_ReadCounter
 218              		.code	16
 219              		.thumb_func
 220              		.type	QuadDec_Cnt8_ReadCounter, %function
 221              	QuadDec_Cnt8_ReadCounter:
 222              	.LFB10:
 340:Generated_Source\PSoC4/QuadDec_Cnt8.c **** #endif /* (!(QuadDec_Cnt8_UsingFixedFunction && (CY_PSOC5A))) */
 341:Generated_Source\PSoC4/QuadDec_Cnt8.c **** 
 342:Generated_Source\PSoC4/QuadDec_Cnt8.c **** 
 343:Generated_Source\PSoC4/QuadDec_Cnt8.c **** /*******************************************************************************
 344:Generated_Source\PSoC4/QuadDec_Cnt8.c **** * Function Name: QuadDec_Cnt8_ReadCounter
 345:Generated_Source\PSoC4/QuadDec_Cnt8.c **** ********************************************************************************
 346:Generated_Source\PSoC4/QuadDec_Cnt8.c **** * Summary:
 347:Generated_Source\PSoC4/QuadDec_Cnt8.c **** * Returns the current value of the counter.  It doesn't matter
 348:Generated_Source\PSoC4/QuadDec_Cnt8.c **** * if the counter is enabled or running.
ARM GAS  C:\Users\VIKTOR~1\AppData\Local\Temp\ccaLWjg4.s 			page 11


 349:Generated_Source\PSoC4/QuadDec_Cnt8.c **** *
 350:Generated_Source\PSoC4/QuadDec_Cnt8.c **** * Parameters:  
 351:Generated_Source\PSoC4/QuadDec_Cnt8.c **** *  void:  
 352:Generated_Source\PSoC4/QuadDec_Cnt8.c **** *
 353:Generated_Source\PSoC4/QuadDec_Cnt8.c **** * Return: 
 354:Generated_Source\PSoC4/QuadDec_Cnt8.c **** *  (uint8) The present value of the counter.
 355:Generated_Source\PSoC4/QuadDec_Cnt8.c **** *
 356:Generated_Source\PSoC4/QuadDec_Cnt8.c **** *******************************************************************************/
 357:Generated_Source\PSoC4/QuadDec_Cnt8.c **** uint8 QuadDec_Cnt8_ReadCounter(void) 
 358:Generated_Source\PSoC4/QuadDec_Cnt8.c **** {
 223              		.loc 1 358 0
 224              		.cfi_startproc
 225              		@ args = 0, pretend = 0, frame = 0
 226              		@ frame_needed = 0, uses_anonymous_args = 0
 227              		@ link register save eliminated.
 359:Generated_Source\PSoC4/QuadDec_Cnt8.c ****     /* Force capture by reading Accumulator */
 360:Generated_Source\PSoC4/QuadDec_Cnt8.c ****     /* Must first do a software capture to be able to read the counter */
 361:Generated_Source\PSoC4/QuadDec_Cnt8.c ****     /* It is up to the user code to make sure there isn't already captured data in the FIFO */
 362:Generated_Source\PSoC4/QuadDec_Cnt8.c ****     #if(QuadDec_Cnt8_UsingFixedFunction)
 363:Generated_Source\PSoC4/QuadDec_Cnt8.c **** 		(void)CY_GET_REG16(QuadDec_Cnt8_COUNTER_LSB_PTR);
 364:Generated_Source\PSoC4/QuadDec_Cnt8.c **** 	#else
 365:Generated_Source\PSoC4/QuadDec_Cnt8.c **** 		(void)CY_GET_REG8(QuadDec_Cnt8_COUNTER_LSB_PTR_8BIT);
 228              		.loc 1 365 0
 229 0000 024B     		ldr	r3, .L23
 230 0002 1B78     		ldrb	r3, [r3]
 366:Generated_Source\PSoC4/QuadDec_Cnt8.c **** 	#endif/* (QuadDec_Cnt8_UsingFixedFunction) */
 367:Generated_Source\PSoC4/QuadDec_Cnt8.c ****     
 368:Generated_Source\PSoC4/QuadDec_Cnt8.c ****     /* Read the data from the FIFO (or capture register for Fixed Function)*/
 369:Generated_Source\PSoC4/QuadDec_Cnt8.c ****     #if(QuadDec_Cnt8_UsingFixedFunction)
 370:Generated_Source\PSoC4/QuadDec_Cnt8.c ****         return ((uint8)CY_GET_REG16(QuadDec_Cnt8_STATICCOUNT_LSB_PTR));
 371:Generated_Source\PSoC4/QuadDec_Cnt8.c ****     #else
 372:Generated_Source\PSoC4/QuadDec_Cnt8.c ****         return (CY_GET_REG8(QuadDec_Cnt8_STATICCOUNT_LSB_PTR));
 231              		.loc 1 372 0
 232 0004 024B     		ldr	r3, .L23+4
 233 0006 1878     		ldrb	r0, [r3]
 234 0008 C0B2     		uxtb	r0, r0
 373:Generated_Source\PSoC4/QuadDec_Cnt8.c ****     #endif /* (QuadDec_Cnt8_UsingFixedFunction) */
 374:Generated_Source\PSoC4/QuadDec_Cnt8.c **** }
 235              		.loc 1 374 0
 236              		@ sp needed
 237 000a 7047     		bx	lr
 238              	.L24:
 239              		.align	2
 240              	.L23:
 241 000c 01000F40 		.word	1074724865
 242 0010 41000F40 		.word	1074724929
 243              		.cfi_endproc
 244              	.LFE10:
 245              		.size	QuadDec_Cnt8_ReadCounter, .-QuadDec_Cnt8_ReadCounter
 246              		.section	.text.QuadDec_Cnt8_ReadCapture,"ax",%progbits
 247              		.align	2
 248              		.global	QuadDec_Cnt8_ReadCapture
 249              		.code	16
 250              		.thumb_func
 251              		.type	QuadDec_Cnt8_ReadCapture, %function
 252              	QuadDec_Cnt8_ReadCapture:
 253              	.LFB11:
ARM GAS  C:\Users\VIKTOR~1\AppData\Local\Temp\ccaLWjg4.s 			page 12


 375:Generated_Source\PSoC4/QuadDec_Cnt8.c **** 
 376:Generated_Source\PSoC4/QuadDec_Cnt8.c **** 
 377:Generated_Source\PSoC4/QuadDec_Cnt8.c **** /*******************************************************************************
 378:Generated_Source\PSoC4/QuadDec_Cnt8.c **** * Function Name: QuadDec_Cnt8_ReadCapture
 379:Generated_Source\PSoC4/QuadDec_Cnt8.c **** ********************************************************************************
 380:Generated_Source\PSoC4/QuadDec_Cnt8.c **** * Summary:
 381:Generated_Source\PSoC4/QuadDec_Cnt8.c **** *   This function returns the last value captured.
 382:Generated_Source\PSoC4/QuadDec_Cnt8.c **** *
 383:Generated_Source\PSoC4/QuadDec_Cnt8.c **** * Parameters:  
 384:Generated_Source\PSoC4/QuadDec_Cnt8.c **** *  void
 385:Generated_Source\PSoC4/QuadDec_Cnt8.c **** *
 386:Generated_Source\PSoC4/QuadDec_Cnt8.c **** * Return: 
 387:Generated_Source\PSoC4/QuadDec_Cnt8.c **** *  (uint8) Present Capture value.
 388:Generated_Source\PSoC4/QuadDec_Cnt8.c **** *
 389:Generated_Source\PSoC4/QuadDec_Cnt8.c **** *******************************************************************************/
 390:Generated_Source\PSoC4/QuadDec_Cnt8.c **** uint8 QuadDec_Cnt8_ReadCapture(void) 
 391:Generated_Source\PSoC4/QuadDec_Cnt8.c **** {
 254              		.loc 1 391 0
 255              		.cfi_startproc
 256              		@ args = 0, pretend = 0, frame = 0
 257              		@ frame_needed = 0, uses_anonymous_args = 0
 258              		@ link register save eliminated.
 392:Generated_Source\PSoC4/QuadDec_Cnt8.c ****     #if(QuadDec_Cnt8_UsingFixedFunction)
 393:Generated_Source\PSoC4/QuadDec_Cnt8.c ****         return ((uint8)CY_GET_REG16(QuadDec_Cnt8_STATICCOUNT_LSB_PTR));
 394:Generated_Source\PSoC4/QuadDec_Cnt8.c ****     #else
 395:Generated_Source\PSoC4/QuadDec_Cnt8.c ****         return (CY_GET_REG8(QuadDec_Cnt8_STATICCOUNT_LSB_PTR));
 259              		.loc 1 395 0
 260 0000 014B     		ldr	r3, .L26
 261 0002 1878     		ldrb	r0, [r3]
 262 0004 C0B2     		uxtb	r0, r0
 396:Generated_Source\PSoC4/QuadDec_Cnt8.c ****     #endif /* (QuadDec_Cnt8_UsingFixedFunction) */
 397:Generated_Source\PSoC4/QuadDec_Cnt8.c **** }
 263              		.loc 1 397 0
 264              		@ sp needed
 265 0006 7047     		bx	lr
 266              	.L27:
 267              		.align	2
 268              	.L26:
 269 0008 41000F40 		.word	1074724929
 270              		.cfi_endproc
 271              	.LFE11:
 272              		.size	QuadDec_Cnt8_ReadCapture, .-QuadDec_Cnt8_ReadCapture
 273              		.section	.text.QuadDec_Cnt8_WritePeriod,"ax",%progbits
 274              		.align	2
 275              		.global	QuadDec_Cnt8_WritePeriod
 276              		.code	16
 277              		.thumb_func
 278              		.type	QuadDec_Cnt8_WritePeriod, %function
 279              	QuadDec_Cnt8_WritePeriod:
 280              	.LFB12:
 398:Generated_Source\PSoC4/QuadDec_Cnt8.c **** 
 399:Generated_Source\PSoC4/QuadDec_Cnt8.c **** 
 400:Generated_Source\PSoC4/QuadDec_Cnt8.c **** /*******************************************************************************
 401:Generated_Source\PSoC4/QuadDec_Cnt8.c **** * Function Name: QuadDec_Cnt8_WritePeriod
 402:Generated_Source\PSoC4/QuadDec_Cnt8.c **** ********************************************************************************
 403:Generated_Source\PSoC4/QuadDec_Cnt8.c **** * Summary:
 404:Generated_Source\PSoC4/QuadDec_Cnt8.c **** * Changes the period of the counter.  The new period 
ARM GAS  C:\Users\VIKTOR~1\AppData\Local\Temp\ccaLWjg4.s 			page 13


 405:Generated_Source\PSoC4/QuadDec_Cnt8.c **** * will be loaded the next time terminal count is detected.
 406:Generated_Source\PSoC4/QuadDec_Cnt8.c **** *
 407:Generated_Source\PSoC4/QuadDec_Cnt8.c **** * Parameters:  
 408:Generated_Source\PSoC4/QuadDec_Cnt8.c **** *  period: (uint8) A value of 0 will result in
 409:Generated_Source\PSoC4/QuadDec_Cnt8.c **** *         the counter remaining at zero.  
 410:Generated_Source\PSoC4/QuadDec_Cnt8.c **** *
 411:Generated_Source\PSoC4/QuadDec_Cnt8.c **** * Return: 
 412:Generated_Source\PSoC4/QuadDec_Cnt8.c **** *  void
 413:Generated_Source\PSoC4/QuadDec_Cnt8.c **** *
 414:Generated_Source\PSoC4/QuadDec_Cnt8.c **** *******************************************************************************/
 415:Generated_Source\PSoC4/QuadDec_Cnt8.c **** void QuadDec_Cnt8_WritePeriod(uint8 period) 
 416:Generated_Source\PSoC4/QuadDec_Cnt8.c **** {
 281              		.loc 1 416 0
 282              		.cfi_startproc
 283              		@ args = 0, pretend = 0, frame = 0
 284              		@ frame_needed = 0, uses_anonymous_args = 0
 285              		@ link register save eliminated.
 286              	.LVL3:
 417:Generated_Source\PSoC4/QuadDec_Cnt8.c ****     #if(QuadDec_Cnt8_UsingFixedFunction)
 418:Generated_Source\PSoC4/QuadDec_Cnt8.c ****         CY_SET_REG16(QuadDec_Cnt8_PERIOD_LSB_PTR,(uint16)period);
 419:Generated_Source\PSoC4/QuadDec_Cnt8.c ****     #else
 420:Generated_Source\PSoC4/QuadDec_Cnt8.c ****         CY_SET_REG8(QuadDec_Cnt8_PERIOD_LSB_PTR, period);
 287              		.loc 1 420 0
 288 0000 014B     		ldr	r3, .L29
 289 0002 1870     		strb	r0, [r3]
 421:Generated_Source\PSoC4/QuadDec_Cnt8.c ****     #endif /* (QuadDec_Cnt8_UsingFixedFunction) */
 422:Generated_Source\PSoC4/QuadDec_Cnt8.c **** }
 290              		.loc 1 422 0
 291              		@ sp needed
 292 0004 7047     		bx	lr
 293              	.L30:
 294 0006 C046     		.align	2
 295              	.L29:
 296 0008 21000F40 		.word	1074724897
 297              		.cfi_endproc
 298              	.LFE12:
 299              		.size	QuadDec_Cnt8_WritePeriod, .-QuadDec_Cnt8_WritePeriod
 300              		.section	.text.QuadDec_Cnt8_ReadPeriod,"ax",%progbits
 301              		.align	2
 302              		.global	QuadDec_Cnt8_ReadPeriod
 303              		.code	16
 304              		.thumb_func
 305              		.type	QuadDec_Cnt8_ReadPeriod, %function
 306              	QuadDec_Cnt8_ReadPeriod:
 307              	.LFB13:
 423:Generated_Source\PSoC4/QuadDec_Cnt8.c **** 
 424:Generated_Source\PSoC4/QuadDec_Cnt8.c **** 
 425:Generated_Source\PSoC4/QuadDec_Cnt8.c **** /*******************************************************************************
 426:Generated_Source\PSoC4/QuadDec_Cnt8.c **** * Function Name: QuadDec_Cnt8_ReadPeriod
 427:Generated_Source\PSoC4/QuadDec_Cnt8.c **** ********************************************************************************
 428:Generated_Source\PSoC4/QuadDec_Cnt8.c **** * Summary:
 429:Generated_Source\PSoC4/QuadDec_Cnt8.c **** * Reads the current period value without affecting counter operation.
 430:Generated_Source\PSoC4/QuadDec_Cnt8.c **** *
 431:Generated_Source\PSoC4/QuadDec_Cnt8.c **** * Parameters:  
 432:Generated_Source\PSoC4/QuadDec_Cnt8.c **** *  void:  
 433:Generated_Source\PSoC4/QuadDec_Cnt8.c **** *
 434:Generated_Source\PSoC4/QuadDec_Cnt8.c **** * Return: 
ARM GAS  C:\Users\VIKTOR~1\AppData\Local\Temp\ccaLWjg4.s 			page 14


 435:Generated_Source\PSoC4/QuadDec_Cnt8.c **** *  (uint8) Present period value.
 436:Generated_Source\PSoC4/QuadDec_Cnt8.c **** *
 437:Generated_Source\PSoC4/QuadDec_Cnt8.c **** *******************************************************************************/
 438:Generated_Source\PSoC4/QuadDec_Cnt8.c **** uint8 QuadDec_Cnt8_ReadPeriod(void) 
 439:Generated_Source\PSoC4/QuadDec_Cnt8.c **** {
 308              		.loc 1 439 0
 309              		.cfi_startproc
 310              		@ args = 0, pretend = 0, frame = 0
 311              		@ frame_needed = 0, uses_anonymous_args = 0
 312              		@ link register save eliminated.
 440:Generated_Source\PSoC4/QuadDec_Cnt8.c ****     #if(QuadDec_Cnt8_UsingFixedFunction)
 441:Generated_Source\PSoC4/QuadDec_Cnt8.c ****         return ((uint8)CY_GET_REG16(QuadDec_Cnt8_PERIOD_LSB_PTR));
 442:Generated_Source\PSoC4/QuadDec_Cnt8.c ****     #else
 443:Generated_Source\PSoC4/QuadDec_Cnt8.c ****         return (CY_GET_REG8(QuadDec_Cnt8_PERIOD_LSB_PTR));
 313              		.loc 1 443 0
 314 0000 014B     		ldr	r3, .L32
 315 0002 1878     		ldrb	r0, [r3]
 316 0004 C0B2     		uxtb	r0, r0
 444:Generated_Source\PSoC4/QuadDec_Cnt8.c ****     #endif /* (QuadDec_Cnt8_UsingFixedFunction) */
 445:Generated_Source\PSoC4/QuadDec_Cnt8.c **** }
 317              		.loc 1 445 0
 318              		@ sp needed
 319 0006 7047     		bx	lr
 320              	.L33:
 321              		.align	2
 322              	.L32:
 323 0008 21000F40 		.word	1074724897
 324              		.cfi_endproc
 325              	.LFE13:
 326              		.size	QuadDec_Cnt8_ReadPeriod, .-QuadDec_Cnt8_ReadPeriod
 327              		.section	.text.QuadDec_Cnt8_WriteCompare,"ax",%progbits
 328              		.align	2
 329              		.global	QuadDec_Cnt8_WriteCompare
 330              		.code	16
 331              		.thumb_func
 332              		.type	QuadDec_Cnt8_WriteCompare, %function
 333              	QuadDec_Cnt8_WriteCompare:
 334              	.LFB14:
 446:Generated_Source\PSoC4/QuadDec_Cnt8.c **** 
 447:Generated_Source\PSoC4/QuadDec_Cnt8.c **** 
 448:Generated_Source\PSoC4/QuadDec_Cnt8.c **** #if (!QuadDec_Cnt8_UsingFixedFunction)
 449:Generated_Source\PSoC4/QuadDec_Cnt8.c **** /*******************************************************************************
 450:Generated_Source\PSoC4/QuadDec_Cnt8.c **** * Function Name: QuadDec_Cnt8_WriteCompare
 451:Generated_Source\PSoC4/QuadDec_Cnt8.c **** ********************************************************************************
 452:Generated_Source\PSoC4/QuadDec_Cnt8.c **** * Summary:
 453:Generated_Source\PSoC4/QuadDec_Cnt8.c **** * Changes the compare value.  The compare output will 
 454:Generated_Source\PSoC4/QuadDec_Cnt8.c **** * reflect the new value on the next UDB clock.  The compare output will be 
 455:Generated_Source\PSoC4/QuadDec_Cnt8.c **** * driven high when the present counter value compares true based on the 
 456:Generated_Source\PSoC4/QuadDec_Cnt8.c **** * configured compare mode setting. 
 457:Generated_Source\PSoC4/QuadDec_Cnt8.c **** *
 458:Generated_Source\PSoC4/QuadDec_Cnt8.c **** * Parameters:  
 459:Generated_Source\PSoC4/QuadDec_Cnt8.c **** *  Compare:  New compare value. 
 460:Generated_Source\PSoC4/QuadDec_Cnt8.c **** *
 461:Generated_Source\PSoC4/QuadDec_Cnt8.c **** * Return: 
 462:Generated_Source\PSoC4/QuadDec_Cnt8.c **** *  void
 463:Generated_Source\PSoC4/QuadDec_Cnt8.c **** *
 464:Generated_Source\PSoC4/QuadDec_Cnt8.c **** *******************************************************************************/
ARM GAS  C:\Users\VIKTOR~1\AppData\Local\Temp\ccaLWjg4.s 			page 15


 465:Generated_Source\PSoC4/QuadDec_Cnt8.c **** void QuadDec_Cnt8_WriteCompare(uint8 compare) \
 466:Generated_Source\PSoC4/QuadDec_Cnt8.c ****                                    
 467:Generated_Source\PSoC4/QuadDec_Cnt8.c **** {
 335              		.loc 1 467 0
 336              		.cfi_startproc
 337              		@ args = 0, pretend = 0, frame = 0
 338              		@ frame_needed = 0, uses_anonymous_args = 0
 339              		@ link register save eliminated.
 340              	.LVL4:
 468:Generated_Source\PSoC4/QuadDec_Cnt8.c ****     #if(QuadDec_Cnt8_UsingFixedFunction)
 469:Generated_Source\PSoC4/QuadDec_Cnt8.c ****         CY_SET_REG16(QuadDec_Cnt8_COMPARE_LSB_PTR, (uint16)compare);
 470:Generated_Source\PSoC4/QuadDec_Cnt8.c ****     #else
 471:Generated_Source\PSoC4/QuadDec_Cnt8.c ****         CY_SET_REG8(QuadDec_Cnt8_COMPARE_LSB_PTR, compare);
 341              		.loc 1 471 0
 342 0000 014B     		ldr	r3, .L35
 343 0002 1870     		strb	r0, [r3]
 472:Generated_Source\PSoC4/QuadDec_Cnt8.c ****     #endif /* (QuadDec_Cnt8_UsingFixedFunction) */
 473:Generated_Source\PSoC4/QuadDec_Cnt8.c **** }
 344              		.loc 1 473 0
 345              		@ sp needed
 346 0004 7047     		bx	lr
 347              	.L36:
 348 0006 C046     		.align	2
 349              	.L35:
 350 0008 31000F40 		.word	1074724913
 351              		.cfi_endproc
 352              	.LFE14:
 353              		.size	QuadDec_Cnt8_WriteCompare, .-QuadDec_Cnt8_WriteCompare
 354              		.section	.text.QuadDec_Cnt8_ReadCompare,"ax",%progbits
 355              		.align	2
 356              		.global	QuadDec_Cnt8_ReadCompare
 357              		.code	16
 358              		.thumb_func
 359              		.type	QuadDec_Cnt8_ReadCompare, %function
 360              	QuadDec_Cnt8_ReadCompare:
 361              	.LFB15:
 474:Generated_Source\PSoC4/QuadDec_Cnt8.c **** 
 475:Generated_Source\PSoC4/QuadDec_Cnt8.c **** 
 476:Generated_Source\PSoC4/QuadDec_Cnt8.c **** /*******************************************************************************
 477:Generated_Source\PSoC4/QuadDec_Cnt8.c **** * Function Name: QuadDec_Cnt8_ReadCompare
 478:Generated_Source\PSoC4/QuadDec_Cnt8.c **** ********************************************************************************
 479:Generated_Source\PSoC4/QuadDec_Cnt8.c **** * Summary:
 480:Generated_Source\PSoC4/QuadDec_Cnt8.c **** * Returns the compare value.
 481:Generated_Source\PSoC4/QuadDec_Cnt8.c **** *
 482:Generated_Source\PSoC4/QuadDec_Cnt8.c **** * Parameters:  
 483:Generated_Source\PSoC4/QuadDec_Cnt8.c **** *  void:
 484:Generated_Source\PSoC4/QuadDec_Cnt8.c **** *
 485:Generated_Source\PSoC4/QuadDec_Cnt8.c **** * Return: 
 486:Generated_Source\PSoC4/QuadDec_Cnt8.c **** *  (uint8) Present compare value.
 487:Generated_Source\PSoC4/QuadDec_Cnt8.c **** *
 488:Generated_Source\PSoC4/QuadDec_Cnt8.c **** *******************************************************************************/
 489:Generated_Source\PSoC4/QuadDec_Cnt8.c **** uint8 QuadDec_Cnt8_ReadCompare(void) 
 490:Generated_Source\PSoC4/QuadDec_Cnt8.c **** {
 362              		.loc 1 490 0
 363              		.cfi_startproc
 364              		@ args = 0, pretend = 0, frame = 0
 365              		@ frame_needed = 0, uses_anonymous_args = 0
ARM GAS  C:\Users\VIKTOR~1\AppData\Local\Temp\ccaLWjg4.s 			page 16


 366              		@ link register save eliminated.
 491:Generated_Source\PSoC4/QuadDec_Cnt8.c ****     return (CY_GET_REG8(QuadDec_Cnt8_COMPARE_LSB_PTR));
 367              		.loc 1 491 0
 368 0000 014B     		ldr	r3, .L38
 369 0002 1878     		ldrb	r0, [r3]
 370 0004 C0B2     		uxtb	r0, r0
 492:Generated_Source\PSoC4/QuadDec_Cnt8.c **** }
 371              		.loc 1 492 0
 372              		@ sp needed
 373 0006 7047     		bx	lr
 374              	.L39:
 375              		.align	2
 376              	.L38:
 377 0008 31000F40 		.word	1074724913
 378              		.cfi_endproc
 379              	.LFE15:
 380              		.size	QuadDec_Cnt8_ReadCompare, .-QuadDec_Cnt8_ReadCompare
 381              		.section	.text.QuadDec_Cnt8_ClearFIFO,"ax",%progbits
 382              		.align	2
 383              		.global	QuadDec_Cnt8_ClearFIFO
 384              		.code	16
 385              		.thumb_func
 386              		.type	QuadDec_Cnt8_ClearFIFO, %function
 387              	QuadDec_Cnt8_ClearFIFO:
 388              	.LFB16:
 493:Generated_Source\PSoC4/QuadDec_Cnt8.c **** 
 494:Generated_Source\PSoC4/QuadDec_Cnt8.c **** 
 495:Generated_Source\PSoC4/QuadDec_Cnt8.c **** #if (QuadDec_Cnt8_COMPARE_MODE_SOFTWARE)
 496:Generated_Source\PSoC4/QuadDec_Cnt8.c **** /*******************************************************************************
 497:Generated_Source\PSoC4/QuadDec_Cnt8.c **** * Function Name: QuadDec_Cnt8_SetCompareMode
 498:Generated_Source\PSoC4/QuadDec_Cnt8.c **** ********************************************************************************
 499:Generated_Source\PSoC4/QuadDec_Cnt8.c **** * Summary:
 500:Generated_Source\PSoC4/QuadDec_Cnt8.c **** *  Sets the software controlled Compare Mode.
 501:Generated_Source\PSoC4/QuadDec_Cnt8.c **** *
 502:Generated_Source\PSoC4/QuadDec_Cnt8.c **** * Parameters:
 503:Generated_Source\PSoC4/QuadDec_Cnt8.c **** *  compareMode:  Compare Mode Enumerated Type.
 504:Generated_Source\PSoC4/QuadDec_Cnt8.c **** *
 505:Generated_Source\PSoC4/QuadDec_Cnt8.c **** * Return:
 506:Generated_Source\PSoC4/QuadDec_Cnt8.c **** *  void
 507:Generated_Source\PSoC4/QuadDec_Cnt8.c **** *
 508:Generated_Source\PSoC4/QuadDec_Cnt8.c **** *******************************************************************************/
 509:Generated_Source\PSoC4/QuadDec_Cnt8.c **** void QuadDec_Cnt8_SetCompareMode(uint8 compareMode) 
 510:Generated_Source\PSoC4/QuadDec_Cnt8.c **** {
 511:Generated_Source\PSoC4/QuadDec_Cnt8.c ****     /* Clear the compare mode bits in the control register */
 512:Generated_Source\PSoC4/QuadDec_Cnt8.c ****     QuadDec_Cnt8_CONTROL &= ((uint8)(~QuadDec_Cnt8_CTRL_CMPMODE_MASK));
 513:Generated_Source\PSoC4/QuadDec_Cnt8.c ****     
 514:Generated_Source\PSoC4/QuadDec_Cnt8.c ****     /* Write the new setting */
 515:Generated_Source\PSoC4/QuadDec_Cnt8.c ****     QuadDec_Cnt8_CONTROL |= compareMode;
 516:Generated_Source\PSoC4/QuadDec_Cnt8.c **** }
 517:Generated_Source\PSoC4/QuadDec_Cnt8.c **** #endif  /* (QuadDec_Cnt8_COMPARE_MODE_SOFTWARE) */
 518:Generated_Source\PSoC4/QuadDec_Cnt8.c **** 
 519:Generated_Source\PSoC4/QuadDec_Cnt8.c **** 
 520:Generated_Source\PSoC4/QuadDec_Cnt8.c **** #if (QuadDec_Cnt8_CAPTURE_MODE_SOFTWARE)
 521:Generated_Source\PSoC4/QuadDec_Cnt8.c **** /*******************************************************************************
 522:Generated_Source\PSoC4/QuadDec_Cnt8.c **** * Function Name: QuadDec_Cnt8_SetCaptureMode
 523:Generated_Source\PSoC4/QuadDec_Cnt8.c **** ********************************************************************************
 524:Generated_Source\PSoC4/QuadDec_Cnt8.c **** * Summary:
ARM GAS  C:\Users\VIKTOR~1\AppData\Local\Temp\ccaLWjg4.s 			page 17


 525:Generated_Source\PSoC4/QuadDec_Cnt8.c **** *  Sets the software controlled Capture Mode.
 526:Generated_Source\PSoC4/QuadDec_Cnt8.c **** *
 527:Generated_Source\PSoC4/QuadDec_Cnt8.c **** * Parameters:
 528:Generated_Source\PSoC4/QuadDec_Cnt8.c **** *  captureMode:  Capture Mode Enumerated Type.
 529:Generated_Source\PSoC4/QuadDec_Cnt8.c **** *
 530:Generated_Source\PSoC4/QuadDec_Cnt8.c **** * Return:
 531:Generated_Source\PSoC4/QuadDec_Cnt8.c **** *  void
 532:Generated_Source\PSoC4/QuadDec_Cnt8.c **** *
 533:Generated_Source\PSoC4/QuadDec_Cnt8.c **** *******************************************************************************/
 534:Generated_Source\PSoC4/QuadDec_Cnt8.c **** void QuadDec_Cnt8_SetCaptureMode(uint8 captureMode) 
 535:Generated_Source\PSoC4/QuadDec_Cnt8.c **** {
 536:Generated_Source\PSoC4/QuadDec_Cnt8.c ****     /* Clear the capture mode bits in the control register */
 537:Generated_Source\PSoC4/QuadDec_Cnt8.c ****     QuadDec_Cnt8_CONTROL &= ((uint8)(~QuadDec_Cnt8_CTRL_CAPMODE_MASK));
 538:Generated_Source\PSoC4/QuadDec_Cnt8.c ****     
 539:Generated_Source\PSoC4/QuadDec_Cnt8.c ****     /* Write the new setting */
 540:Generated_Source\PSoC4/QuadDec_Cnt8.c ****     QuadDec_Cnt8_CONTROL |= ((uint8)((uint8)captureMode << QuadDec_Cnt8_CTRL_CAPMODE0_SHIFT));
 541:Generated_Source\PSoC4/QuadDec_Cnt8.c **** }
 542:Generated_Source\PSoC4/QuadDec_Cnt8.c **** #endif  /* (QuadDec_Cnt8_CAPTURE_MODE_SOFTWARE) */
 543:Generated_Source\PSoC4/QuadDec_Cnt8.c **** 
 544:Generated_Source\PSoC4/QuadDec_Cnt8.c **** 
 545:Generated_Source\PSoC4/QuadDec_Cnt8.c **** /*******************************************************************************
 546:Generated_Source\PSoC4/QuadDec_Cnt8.c **** * Function Name: QuadDec_Cnt8_ClearFIFO
 547:Generated_Source\PSoC4/QuadDec_Cnt8.c **** ********************************************************************************
 548:Generated_Source\PSoC4/QuadDec_Cnt8.c **** * Summary:
 549:Generated_Source\PSoC4/QuadDec_Cnt8.c **** *   This function clears all capture data from the capture FIFO
 550:Generated_Source\PSoC4/QuadDec_Cnt8.c **** *
 551:Generated_Source\PSoC4/QuadDec_Cnt8.c **** * Parameters:  
 552:Generated_Source\PSoC4/QuadDec_Cnt8.c **** *  void:
 553:Generated_Source\PSoC4/QuadDec_Cnt8.c **** *
 554:Generated_Source\PSoC4/QuadDec_Cnt8.c **** * Return: 
 555:Generated_Source\PSoC4/QuadDec_Cnt8.c **** *  None
 556:Generated_Source\PSoC4/QuadDec_Cnt8.c **** *
 557:Generated_Source\PSoC4/QuadDec_Cnt8.c **** *******************************************************************************/
 558:Generated_Source\PSoC4/QuadDec_Cnt8.c **** void QuadDec_Cnt8_ClearFIFO(void) 
 559:Generated_Source\PSoC4/QuadDec_Cnt8.c **** {
 389              		.loc 1 559 0
 390              		.cfi_startproc
 391              		@ args = 0, pretend = 0, frame = 0
 392              		@ frame_needed = 0, uses_anonymous_args = 0
 393 0000 10B5     		push	{r4, lr}
 394              		.cfi_def_cfa_offset 8
 395              		.cfi_offset 4, -8
 396              		.cfi_offset 14, -4
 560:Generated_Source\PSoC4/QuadDec_Cnt8.c **** 
 561:Generated_Source\PSoC4/QuadDec_Cnt8.c ****     while(0u != (QuadDec_Cnt8_ReadStatusRegister() & QuadDec_Cnt8_STATUS_FIFONEMP))
 397              		.loc 1 561 0
 398 0002 01E0     		b	.L41
 399              	.L42:
 562:Generated_Source\PSoC4/QuadDec_Cnt8.c ****     {
 563:Generated_Source\PSoC4/QuadDec_Cnt8.c ****         (void)QuadDec_Cnt8_ReadCapture();
 400              		.loc 1 563 0
 401 0004 FFF7FEFF 		bl	QuadDec_Cnt8_ReadCapture
 402              	.LVL5:
 403              	.L41:
 561:Generated_Source\PSoC4/QuadDec_Cnt8.c ****     {
 404              		.loc 1 561 0
 405 0008 FFF7FEFF 		bl	QuadDec_Cnt8_ReadStatusRegister
ARM GAS  C:\Users\VIKTOR~1\AppData\Local\Temp\ccaLWjg4.s 			page 18


 406              	.LVL6:
 407 000c 4306     		lsls	r3, r0, #25
 408 000e F9D4     		bmi	.L42
 564:Generated_Source\PSoC4/QuadDec_Cnt8.c ****     }
 565:Generated_Source\PSoC4/QuadDec_Cnt8.c **** 
 566:Generated_Source\PSoC4/QuadDec_Cnt8.c **** }
 409              		.loc 1 566 0
 410              		@ sp needed
 411 0010 10BD     		pop	{r4, pc}
 412              		.cfi_endproc
 413              	.LFE16:
 414              		.size	QuadDec_Cnt8_ClearFIFO, .-QuadDec_Cnt8_ClearFIFO
 415 0012 C046     		.section	.text.QuadDec_Cnt8_Init,"ax",%progbits
 416              		.align	2
 417              		.global	QuadDec_Cnt8_Init
 418              		.code	16
 419              		.thumb_func
 420              		.type	QuadDec_Cnt8_Init, %function
 421              	QuadDec_Cnt8_Init:
 422              	.LFB1:
  38:Generated_Source\PSoC4/QuadDec_Cnt8.c ****         #if (!QuadDec_Cnt8_UsingFixedFunction && !QuadDec_Cnt8_ControlRegRemoved)
 423              		.loc 1 38 0
 424              		.cfi_startproc
 425              		@ args = 0, pretend = 0, frame = 0
 426              		@ frame_needed = 0, uses_anonymous_args = 0
 427 0000 10B5     		push	{r4, lr}
 428              		.cfi_def_cfa_offset 8
 429              		.cfi_offset 4, -8
 430              		.cfi_offset 14, -4
  79:Generated_Source\PSoC4/QuadDec_Cnt8.c ****             QuadDec_Cnt8_CONTROL = ctrl | QuadDec_Cnt8_DEFAULT_COMPARE_MODE;
 431              		.loc 1 79 0
 432 0002 124B     		ldr	r3, .L44
 433 0004 1A78     		ldrb	r2, [r3]
 434 0006 0721     		movs	r1, #7
 435 0008 8A43     		bics	r2, r1
 436              	.LVL7:
  80:Generated_Source\PSoC4/QuadDec_Cnt8.c ****             
 437              		.loc 1 80 0
 438 000a 1A70     		strb	r2, [r3]
  83:Generated_Source\PSoC4/QuadDec_Cnt8.c ****             
 439              		.loc 1 83 0
 440 000c 1A78     		ldrb	r2, [r3]
 441              	.LVL8:
 442 000e 0439     		subs	r1, r1, #4
 443 0010 8A43     		bics	r2, r1
 444              	.LVL9:
  88:Generated_Source\PSoC4/QuadDec_Cnt8.c ****             #endif /* 0 != QuadDec_Cnt8_CAPTURE_MODE */ 
 445              		.loc 1 88 0
 446 0012 1A70     		strb	r2, [r3]
  96:Generated_Source\PSoC4/QuadDec_Cnt8.c ****         #endif /* (!QuadDec_Cnt8_UsingFixedFunction) */
 447              		.loc 1 96 0
 448 0014 FFF7FEFF 		bl	QuadDec_Cnt8_ClearFIFO
 449              	.LVL10:
 100:Generated_Source\PSoC4/QuadDec_Cnt8.c ****         #if (!(QuadDec_Cnt8_UsingFixedFunction && (CY_PSOC5A)))
 450              		.loc 1 100 0
 451 0018 8020     		movs	r0, #128
 452 001a FFF7FEFF 		bl	QuadDec_Cnt8_WritePeriod
ARM GAS  C:\Users\VIKTOR~1\AppData\Local\Temp\ccaLWjg4.s 			page 19


 453              	.LVL11:
 102:Generated_Source\PSoC4/QuadDec_Cnt8.c ****         #endif /* (!(QuadDec_Cnt8_UsingFixedFunction && (CY_PSOC5A))) */
 454              		.loc 1 102 0
 455 001e 8020     		movs	r0, #128
 456 0020 FFF7FEFF 		bl	QuadDec_Cnt8_WriteCounter
 457              	.LVL12:
 104:Generated_Source\PSoC4/QuadDec_Cnt8.c ****         
 458              		.loc 1 104 0
 459 0024 0020     		movs	r0, #0
 460 0026 FFF7FEFF 		bl	QuadDec_Cnt8_SetInterruptMode
 461              	.LVL13:
 108:Generated_Source\PSoC4/QuadDec_Cnt8.c ****             /* Set the compare value (only available to non-fixed function implementation */
 462              		.loc 1 108 0
 463 002a FFF7FEFF 		bl	QuadDec_Cnt8_ReadStatusRegister
 464              	.LVL14:
 110:Generated_Source\PSoC4/QuadDec_Cnt8.c ****             /* Use the interrupt output of the status register for IRQ output */
 465              		.loc 1 110 0
 466 002e 8020     		movs	r0, #128
 467 0030 FFF7FEFF 		bl	QuadDec_Cnt8_WriteCompare
 468              	.LVL15:
 115:Generated_Source\PSoC4/QuadDec_Cnt8.c ****             
 469              		.loc 1 115 0
 470 0034 FFF7FEFF 		bl	CyEnterCriticalSection
 471              	.LVL16:
 117:Generated_Source\PSoC4/QuadDec_Cnt8.c ****             
 472              		.loc 1 117 0
 473 0038 054A     		ldr	r2, .L44+4
 474 003a 1178     		ldrb	r1, [r2]
 475 003c 1023     		movs	r3, #16
 476 003e 0B43     		orrs	r3, r1
 477 0040 DBB2     		uxtb	r3, r3
 478 0042 1370     		strb	r3, [r2]
 120:Generated_Source\PSoC4/QuadDec_Cnt8.c ****             
 479              		.loc 1 120 0
 480 0044 FFF7FEFF 		bl	CyExitCriticalSection
 481              	.LVL17:
 123:Generated_Source\PSoC4/QuadDec_Cnt8.c **** 
 482              		.loc 1 123 0
 483              		@ sp needed
 484 0048 10BD     		pop	{r4, pc}
 485              	.L45:
 486 004a C046     		.align	2
 487              	.L44:
 488 004c 71000F40 		.word	1074724977
 489 0050 92000F40 		.word	1074725010
 490              		.cfi_endproc
 491              	.LFE1:
 492              		.size	QuadDec_Cnt8_Init, .-QuadDec_Cnt8_Init
 493              		.section	.text.QuadDec_Cnt8_Start,"ax",%progbits
 494              		.align	2
 495              		.global	QuadDec_Cnt8_Start
 496              		.code	16
 497              		.thumb_func
 498              		.type	QuadDec_Cnt8_Start, %function
 499              	QuadDec_Cnt8_Start:
 500              	.LFB3:
 179:Generated_Source\PSoC4/QuadDec_Cnt8.c ****     if(QuadDec_Cnt8_initVar == 0u)
ARM GAS  C:\Users\VIKTOR~1\AppData\Local\Temp\ccaLWjg4.s 			page 20


 501              		.loc 1 179 0
 502              		.cfi_startproc
 503              		@ args = 0, pretend = 0, frame = 0
 504              		@ frame_needed = 0, uses_anonymous_args = 0
 505 0000 10B5     		push	{r4, lr}
 506              		.cfi_def_cfa_offset 8
 507              		.cfi_offset 4, -8
 508              		.cfi_offset 14, -4
 180:Generated_Source\PSoC4/QuadDec_Cnt8.c ****     {
 509              		.loc 1 180 0
 510 0002 064B     		ldr	r3, .L48
 511 0004 1B78     		ldrb	r3, [r3]
 512 0006 002B     		cmp	r3, #0
 513 0008 04D1     		bne	.L47
 182:Generated_Source\PSoC4/QuadDec_Cnt8.c ****         
 514              		.loc 1 182 0
 515 000a FFF7FEFF 		bl	QuadDec_Cnt8_Init
 516              	.LVL18:
 184:Generated_Source\PSoC4/QuadDec_Cnt8.c ****     }
 517              		.loc 1 184 0
 518 000e 0122     		movs	r2, #1
 519 0010 024B     		ldr	r3, .L48
 520 0012 1A70     		strb	r2, [r3]
 521              	.L47:
 188:Generated_Source\PSoC4/QuadDec_Cnt8.c **** }
 522              		.loc 1 188 0
 523 0014 FFF7FEFF 		bl	QuadDec_Cnt8_Enable
 524              	.LVL19:
 189:Generated_Source\PSoC4/QuadDec_Cnt8.c **** 
 525              		.loc 1 189 0
 526              		@ sp needed
 527 0018 10BD     		pop	{r4, pc}
 528              	.L49:
 529 001a C046     		.align	2
 530              	.L48:
 531 001c 00000000 		.word	.LANCHOR0
 532              		.cfi_endproc
 533              	.LFE3:
 534              		.size	QuadDec_Cnt8_Start, .-QuadDec_Cnt8_Start
 535              		.global	QuadDec_Cnt8_initVar
 536              		.bss
 537              		.set	.LANCHOR0,. + 0
 538              		.type	QuadDec_Cnt8_initVar, %object
 539              		.size	QuadDec_Cnt8_initVar, 1
 540              	QuadDec_Cnt8_initVar:
 541 0000 00       		.space	1
 542              		.text
 543              	.Letext0:
 544              		.file 2 "Generated_Source\\PSoC4\\cytypes.h"
 545              		.file 3 "Generated_Source\\PSoC4\\CyLib.h"