ARM GAS  C:\Users\VIKTOR~1\AppData\Local\Temp\ccAP2xJU.s 			page 1


   1              		.syntax unified
   2              		.cpu cortex-m0
   3              		.fpu softvfp
   4              		.eabi_attribute 20, 1
   5              		.eabi_attribute 21, 1
   6              		.eabi_attribute 23, 3
   7              		.eabi_attribute 24, 1
   8              		.eabi_attribute 25, 1
   9              		.eabi_attribute 26, 1
  10              		.eabi_attribute 30, 1
  11              		.eabi_attribute 34, 0
  12              		.eabi_attribute 18, 4
  13              		.thumb
  14              		.syntax unified
  15              		.file	"cyfitter_cfg.c"
  16              		.text
  17              	.Ltext0:
  18              		.cfi_sections	.debug_frame
  19              		.section	.text.cfg_write_bytes32,"ax",%progbits
  20              		.align	2
  21              		.code	16
  22              		.thumb_func
  23              		.type	cfg_write_bytes32, %function
  24              	cfg_write_bytes32:
  25              	.LFB4:
  26              		.file 1 "Generated_Source\\PSoC4\\cyfitter_cfg.c"
   1:Generated_Source\PSoC4/cyfitter_cfg.c **** 
   2:Generated_Source\PSoC4/cyfitter_cfg.c **** /*******************************************************************************
   3:Generated_Source\PSoC4/cyfitter_cfg.c **** * File Name: cyfitter_cfg.c
   4:Generated_Source\PSoC4/cyfitter_cfg.c **** * 
   5:Generated_Source\PSoC4/cyfitter_cfg.c **** * PSoC Creator  4.4
   6:Generated_Source\PSoC4/cyfitter_cfg.c **** *
   7:Generated_Source\PSoC4/cyfitter_cfg.c **** * Description:
   8:Generated_Source\PSoC4/cyfitter_cfg.c **** * This file contains device initialization code.
   9:Generated_Source\PSoC4/cyfitter_cfg.c **** * Except for the user defined sections in CyClockStartupError(), this file should not be modified.
  10:Generated_Source\PSoC4/cyfitter_cfg.c **** * This file is automatically generated by PSoC Creator.
  11:Generated_Source\PSoC4/cyfitter_cfg.c **** *
  12:Generated_Source\PSoC4/cyfitter_cfg.c **** ********************************************************************************
  13:Generated_Source\PSoC4/cyfitter_cfg.c **** * Copyright (c) 2007-2020 Cypress Semiconductor.  All rights reserved.
  14:Generated_Source\PSoC4/cyfitter_cfg.c **** * You may use this file only in accordance with the license, terms, conditions, 
  15:Generated_Source\PSoC4/cyfitter_cfg.c **** * disclaimers, and limitations in the end user license agreement accompanying 
  16:Generated_Source\PSoC4/cyfitter_cfg.c **** * the software package with which this file was provided.
  17:Generated_Source\PSoC4/cyfitter_cfg.c **** ********************************************************************************/
  18:Generated_Source\PSoC4/cyfitter_cfg.c **** 
  19:Generated_Source\PSoC4/cyfitter_cfg.c **** #include <string.h>
  20:Generated_Source\PSoC4/cyfitter_cfg.c **** #include "cytypes.h"
  21:Generated_Source\PSoC4/cyfitter_cfg.c **** #include "cydevice_trm.h"
  22:Generated_Source\PSoC4/cyfitter_cfg.c **** #include "cyfitter.h"
  23:Generated_Source\PSoC4/cyfitter_cfg.c **** #include "CyLib.h"
  24:Generated_Source\PSoC4/cyfitter_cfg.c **** #include "CyLFClk.h"
  25:Generated_Source\PSoC4/cyfitter_cfg.c **** #include "cyfitter_cfg.h"
  26:Generated_Source\PSoC4/cyfitter_cfg.c **** #include "cyapicallbacks.h"
  27:Generated_Source\PSoC4/cyfitter_cfg.c **** 
  28:Generated_Source\PSoC4/cyfitter_cfg.c **** 
  29:Generated_Source\PSoC4/cyfitter_cfg.c **** #if defined(__GNUC__) || defined(__ARMCC_VERSION)
  30:Generated_Source\PSoC4/cyfitter_cfg.c ****     #define CYPACKED 
  31:Generated_Source\PSoC4/cyfitter_cfg.c ****     #define CYPACKED_ATTR __attribute__ ((packed))
ARM GAS  C:\Users\VIKTOR~1\AppData\Local\Temp\ccAP2xJU.s 			page 2


  32:Generated_Source\PSoC4/cyfitter_cfg.c ****     #define CYALIGNED __attribute__ ((aligned))
  33:Generated_Source\PSoC4/cyfitter_cfg.c ****     #define CY_CFG_UNUSED __attribute__ ((unused))
  34:Generated_Source\PSoC4/cyfitter_cfg.c ****     #ifndef CY_CFG_SECTION
  35:Generated_Source\PSoC4/cyfitter_cfg.c ****         #define CY_CFG_SECTION __attribute__ ((section(".psocinit")))
  36:Generated_Source\PSoC4/cyfitter_cfg.c ****     #endif
  37:Generated_Source\PSoC4/cyfitter_cfg.c ****     
  38:Generated_Source\PSoC4/cyfitter_cfg.c ****     #if defined(__ARMCC_VERSION)
  39:Generated_Source\PSoC4/cyfitter_cfg.c ****         #define CY_CFG_MEMORY_BARRIER() __memory_changed()
  40:Generated_Source\PSoC4/cyfitter_cfg.c ****     #else
  41:Generated_Source\PSoC4/cyfitter_cfg.c ****         #define CY_CFG_MEMORY_BARRIER() __sync_synchronize()
  42:Generated_Source\PSoC4/cyfitter_cfg.c ****     #endif
  43:Generated_Source\PSoC4/cyfitter_cfg.c ****     
  44:Generated_Source\PSoC4/cyfitter_cfg.c **** #elif defined(__ICCARM__)
  45:Generated_Source\PSoC4/cyfitter_cfg.c ****     #include <intrinsics.h>
  46:Generated_Source\PSoC4/cyfitter_cfg.c **** 
  47:Generated_Source\PSoC4/cyfitter_cfg.c ****     #define CYPACKED __packed
  48:Generated_Source\PSoC4/cyfitter_cfg.c ****     #define CYPACKED_ATTR 
  49:Generated_Source\PSoC4/cyfitter_cfg.c ****     #define CYALIGNED _Pragma("data_alignment=4")
  50:Generated_Source\PSoC4/cyfitter_cfg.c ****     #define CY_CFG_UNUSED _Pragma("diag_suppress=Pe177")
  51:Generated_Source\PSoC4/cyfitter_cfg.c ****     #define CY_CFG_SECTION _Pragma("location=\".psocinit\"")
  52:Generated_Source\PSoC4/cyfitter_cfg.c ****     
  53:Generated_Source\PSoC4/cyfitter_cfg.c ****     #define CY_CFG_MEMORY_BARRIER() __DMB()
  54:Generated_Source\PSoC4/cyfitter_cfg.c ****     
  55:Generated_Source\PSoC4/cyfitter_cfg.c **** #else
  56:Generated_Source\PSoC4/cyfitter_cfg.c ****     #error Unsupported toolchain
  57:Generated_Source\PSoC4/cyfitter_cfg.c **** #endif
  58:Generated_Source\PSoC4/cyfitter_cfg.c **** 
  59:Generated_Source\PSoC4/cyfitter_cfg.c **** #ifndef CYCODE
  60:Generated_Source\PSoC4/cyfitter_cfg.c ****     #define CYCODE
  61:Generated_Source\PSoC4/cyfitter_cfg.c **** #endif
  62:Generated_Source\PSoC4/cyfitter_cfg.c **** #ifndef CYDATA
  63:Generated_Source\PSoC4/cyfitter_cfg.c ****     #define CYDATA
  64:Generated_Source\PSoC4/cyfitter_cfg.c **** #endif
  65:Generated_Source\PSoC4/cyfitter_cfg.c **** #ifndef CYFAR
  66:Generated_Source\PSoC4/cyfitter_cfg.c ****     #define CYFAR
  67:Generated_Source\PSoC4/cyfitter_cfg.c **** #endif
  68:Generated_Source\PSoC4/cyfitter_cfg.c **** #ifndef CYXDATA
  69:Generated_Source\PSoC4/cyfitter_cfg.c ****     #define CYXDATA
  70:Generated_Source\PSoC4/cyfitter_cfg.c **** #endif
  71:Generated_Source\PSoC4/cyfitter_cfg.c **** 
  72:Generated_Source\PSoC4/cyfitter_cfg.c **** 
  73:Generated_Source\PSoC4/cyfitter_cfg.c **** CY_CFG_UNUSED
  74:Generated_Source\PSoC4/cyfitter_cfg.c **** static void CYMEMZERO(void *s, size_t n);
  75:Generated_Source\PSoC4/cyfitter_cfg.c **** CY_CFG_UNUSED
  76:Generated_Source\PSoC4/cyfitter_cfg.c **** static void CYMEMZERO(void *s, size_t n)
  77:Generated_Source\PSoC4/cyfitter_cfg.c **** {
  78:Generated_Source\PSoC4/cyfitter_cfg.c **** 	(void)memset(s, 0, n);
  79:Generated_Source\PSoC4/cyfitter_cfg.c **** }
  80:Generated_Source\PSoC4/cyfitter_cfg.c **** CY_CFG_UNUSED
  81:Generated_Source\PSoC4/cyfitter_cfg.c **** static void CYCONFIGCPY(void *dest, const void *src, size_t n);
  82:Generated_Source\PSoC4/cyfitter_cfg.c **** CY_CFG_UNUSED
  83:Generated_Source\PSoC4/cyfitter_cfg.c **** static void CYCONFIGCPY(void *dest, const void *src, size_t n)
  84:Generated_Source\PSoC4/cyfitter_cfg.c **** {
  85:Generated_Source\PSoC4/cyfitter_cfg.c **** 	(void)memcpy(dest, src, n);
  86:Generated_Source\PSoC4/cyfitter_cfg.c **** }
  87:Generated_Source\PSoC4/cyfitter_cfg.c **** CY_CFG_UNUSED
  88:Generated_Source\PSoC4/cyfitter_cfg.c **** static void CYCONFIGCPYCODE(void *dest, const void *src, size_t n);
ARM GAS  C:\Users\VIKTOR~1\AppData\Local\Temp\ccAP2xJU.s 			page 3


  89:Generated_Source\PSoC4/cyfitter_cfg.c **** CY_CFG_UNUSED
  90:Generated_Source\PSoC4/cyfitter_cfg.c **** static void CYCONFIGCPYCODE(void *dest, const void *src, size_t n)
  91:Generated_Source\PSoC4/cyfitter_cfg.c **** {
  92:Generated_Source\PSoC4/cyfitter_cfg.c **** 	(void)memcpy(dest, src, n);
  93:Generated_Source\PSoC4/cyfitter_cfg.c **** }
  94:Generated_Source\PSoC4/cyfitter_cfg.c **** 
  95:Generated_Source\PSoC4/cyfitter_cfg.c **** 
  96:Generated_Source\PSoC4/cyfitter_cfg.c **** 
  97:Generated_Source\PSoC4/cyfitter_cfg.c **** 
  98:Generated_Source\PSoC4/cyfitter_cfg.c **** /* Clock startup error codes                                                   */
  99:Generated_Source\PSoC4/cyfitter_cfg.c **** #define CYCLOCKSTART_NO_ERROR    0u
 100:Generated_Source\PSoC4/cyfitter_cfg.c **** #define CYCLOCKSTART_XTAL_ERROR  1u
 101:Generated_Source\PSoC4/cyfitter_cfg.c **** #define CYCLOCKSTART_32KHZ_ERROR 2u
 102:Generated_Source\PSoC4/cyfitter_cfg.c **** #define CYCLOCKSTART_PLL_ERROR   3u
 103:Generated_Source\PSoC4/cyfitter_cfg.c **** #define CYCLOCKSTART_FLL_ERROR   4u
 104:Generated_Source\PSoC4/cyfitter_cfg.c **** #define CYCLOCKSTART_WCO_ERROR   5u
 105:Generated_Source\PSoC4/cyfitter_cfg.c **** 
 106:Generated_Source\PSoC4/cyfitter_cfg.c **** 
 107:Generated_Source\PSoC4/cyfitter_cfg.c **** #ifdef CY_NEED_CYCLOCKSTARTUPERROR
 108:Generated_Source\PSoC4/cyfitter_cfg.c **** /*******************************************************************************
 109:Generated_Source\PSoC4/cyfitter_cfg.c **** * Function Name: CyClockStartupError
 110:Generated_Source\PSoC4/cyfitter_cfg.c **** ********************************************************************************
 111:Generated_Source\PSoC4/cyfitter_cfg.c **** * Summary:
 112:Generated_Source\PSoC4/cyfitter_cfg.c **** *  If an error is encountered during clock configuration (crystal startup error,
 113:Generated_Source\PSoC4/cyfitter_cfg.c **** *  PLL lock error, etc.), the system will end up here.  Unless reimplemented by
 114:Generated_Source\PSoC4/cyfitter_cfg.c **** *  the customer, this function will stop in an infinite loop.
 115:Generated_Source\PSoC4/cyfitter_cfg.c **** *
 116:Generated_Source\PSoC4/cyfitter_cfg.c **** * Parameters:
 117:Generated_Source\PSoC4/cyfitter_cfg.c **** *   void
 118:Generated_Source\PSoC4/cyfitter_cfg.c **** *
 119:Generated_Source\PSoC4/cyfitter_cfg.c **** * Return:
 120:Generated_Source\PSoC4/cyfitter_cfg.c **** *   void
 121:Generated_Source\PSoC4/cyfitter_cfg.c **** *
 122:Generated_Source\PSoC4/cyfitter_cfg.c **** *******************************************************************************/
 123:Generated_Source\PSoC4/cyfitter_cfg.c **** CY_CFG_UNUSED
 124:Generated_Source\PSoC4/cyfitter_cfg.c **** static void CyClockStartupError(uint8 errorCode);
 125:Generated_Source\PSoC4/cyfitter_cfg.c **** CY_CFG_UNUSED
 126:Generated_Source\PSoC4/cyfitter_cfg.c **** static void CyClockStartupError(uint8 errorCode)
 127:Generated_Source\PSoC4/cyfitter_cfg.c **** {
 128:Generated_Source\PSoC4/cyfitter_cfg.c ****     /* To remove the compiler warning if errorCode not used.                */
 129:Generated_Source\PSoC4/cyfitter_cfg.c ****     errorCode = errorCode;
 130:Generated_Source\PSoC4/cyfitter_cfg.c **** 
 131:Generated_Source\PSoC4/cyfitter_cfg.c ****     /* If we have a clock startup error (bad MHz crystal, PLL lock, etc.),  */
 132:Generated_Source\PSoC4/cyfitter_cfg.c ****     /* we will end up here to allow the customer to implement something to  */
 133:Generated_Source\PSoC4/cyfitter_cfg.c ****     /* deal with the clock condition.                                       */
 134:Generated_Source\PSoC4/cyfitter_cfg.c **** 
 135:Generated_Source\PSoC4/cyfitter_cfg.c **** #ifdef CY_CFG_CLOCK_STARTUP_ERROR_CALLBACK
 136:Generated_Source\PSoC4/cyfitter_cfg.c ****     CY_CFG_Clock_Startup_ErrorCallback();
 137:Generated_Source\PSoC4/cyfitter_cfg.c **** #else
 138:Generated_Source\PSoC4/cyfitter_cfg.c ****     /*  If not using CY_CFG_CLOCK_STARTUP_ERROR_CALLBACK, place your clock startup code here. */
 139:Generated_Source\PSoC4/cyfitter_cfg.c ****     /* `#START CyClockStartupError` */
 140:Generated_Source\PSoC4/cyfitter_cfg.c **** 
 141:Generated_Source\PSoC4/cyfitter_cfg.c **** 
 142:Generated_Source\PSoC4/cyfitter_cfg.c **** 
 143:Generated_Source\PSoC4/cyfitter_cfg.c ****     /* `#END` */
 144:Generated_Source\PSoC4/cyfitter_cfg.c **** 
 145:Generated_Source\PSoC4/cyfitter_cfg.c ****     while(1) {}
ARM GAS  C:\Users\VIKTOR~1\AppData\Local\Temp\ccAP2xJU.s 			page 4


 146:Generated_Source\PSoC4/cyfitter_cfg.c **** #endif /* CY_CFG_CLOCK_STARTUP_ERROR_CALLBACK */
 147:Generated_Source\PSoC4/cyfitter_cfg.c **** }
 148:Generated_Source\PSoC4/cyfitter_cfg.c **** #endif
 149:Generated_Source\PSoC4/cyfitter_cfg.c **** 
 150:Generated_Source\PSoC4/cyfitter_cfg.c **** #define CY_CFG_BASE_ADDR_COUNT 8u
 151:Generated_Source\PSoC4/cyfitter_cfg.c **** CYPACKED typedef struct
 152:Generated_Source\PSoC4/cyfitter_cfg.c **** {
 153:Generated_Source\PSoC4/cyfitter_cfg.c **** 	uint8 offset;
 154:Generated_Source\PSoC4/cyfitter_cfg.c **** 	uint8 value;
 155:Generated_Source\PSoC4/cyfitter_cfg.c **** } CYPACKED_ATTR cy_cfg_addrvalue_t;
 156:Generated_Source\PSoC4/cyfitter_cfg.c **** 
 157:Generated_Source\PSoC4/cyfitter_cfg.c **** 
 158:Generated_Source\PSoC4/cyfitter_cfg.c **** 
 159:Generated_Source\PSoC4/cyfitter_cfg.c **** /*******************************************************************************
 160:Generated_Source\PSoC4/cyfitter_cfg.c **** * Function Name: cfg_write_bytes32
 161:Generated_Source\PSoC4/cyfitter_cfg.c **** ********************************************************************************
 162:Generated_Source\PSoC4/cyfitter_cfg.c **** * Summary:
 163:Generated_Source\PSoC4/cyfitter_cfg.c **** *  This function is used for setting up the chip configuration areas that
 164:Generated_Source\PSoC4/cyfitter_cfg.c **** *  contain relatively sparse data.
 165:Generated_Source\PSoC4/cyfitter_cfg.c **** *
 166:Generated_Source\PSoC4/cyfitter_cfg.c **** * Parameters:
 167:Generated_Source\PSoC4/cyfitter_cfg.c **** *   void
 168:Generated_Source\PSoC4/cyfitter_cfg.c **** *
 169:Generated_Source\PSoC4/cyfitter_cfg.c **** * Return:
 170:Generated_Source\PSoC4/cyfitter_cfg.c **** *   void
 171:Generated_Source\PSoC4/cyfitter_cfg.c **** *
 172:Generated_Source\PSoC4/cyfitter_cfg.c **** *******************************************************************************/
 173:Generated_Source\PSoC4/cyfitter_cfg.c **** static void cfg_write_bytes32(const uint32 addr_table[], const cy_cfg_addrvalue_t data_table[]);
 174:Generated_Source\PSoC4/cyfitter_cfg.c **** static void cfg_write_bytes32(const uint32 addr_table[], const cy_cfg_addrvalue_t data_table[])
 175:Generated_Source\PSoC4/cyfitter_cfg.c **** {
  27              		.loc 1 175 0
  28              		.cfi_startproc
  29              		@ args = 0, pretend = 0, frame = 0
  30              		@ frame_needed = 0, uses_anonymous_args = 0
  31              	.LVL0:
  32 0000 F0B5     		push	{r4, r5, r6, r7, lr}
  33              		.cfi_def_cfa_offset 20
  34              		.cfi_offset 4, -20
  35              		.cfi_offset 5, -16
  36              		.cfi_offset 6, -12
  37              		.cfi_offset 7, -8
  38              		.cfi_offset 14, -4
  39              	.LVL1:
 176:Generated_Source\PSoC4/cyfitter_cfg.c **** 	/* For 32-bit little-endian architectures */
 177:Generated_Source\PSoC4/cyfitter_cfg.c **** 	uint32 i, j = 0u;
  40              		.loc 1 177 0
  41 0002 0025     		movs	r5, #0
 178:Generated_Source\PSoC4/cyfitter_cfg.c **** 	for (i = 0u; i < CY_CFG_BASE_ADDR_COUNT; i++)
  42              		.loc 1 178 0
  43 0004 0027     		movs	r7, #0
  44 0006 11E0     		b	.L2
  45              	.LVL2:
  46              	.L5:
  47              	.LBB2:
 179:Generated_Source\PSoC4/cyfitter_cfg.c **** 	{
 180:Generated_Source\PSoC4/cyfitter_cfg.c **** 		uint32 baseAddr = addr_table[i];
  48              		.loc 1 180 0
ARM GAS  C:\Users\VIKTOR~1\AppData\Local\Temp\ccAP2xJU.s 			page 5


  49 0008 BB00     		lsls	r3, r7, #2
  50 000a C658     		ldr	r6, [r0, r3]
  51              	.LVL3:
 181:Generated_Source\PSoC4/cyfitter_cfg.c **** 		uint8 count = (uint8)baseAddr;
  52              		.loc 1 181 0
  53 000c F3B2     		uxtb	r3, r6
  54              	.LVL4:
 182:Generated_Source\PSoC4/cyfitter_cfg.c **** 		baseAddr &= 0xFFFFFF00u;
  55              		.loc 1 182 0
  56 000e FF22     		movs	r2, #255
  57 0010 9643     		bics	r6, r2
  58              	.LVL5:
 183:Generated_Source\PSoC4/cyfitter_cfg.c **** 		while (count != 0u)
  59              		.loc 1 183 0
  60 0012 08E0     		b	.L3
  61              	.L4:
 184:Generated_Source\PSoC4/cyfitter_cfg.c **** 		{
 185:Generated_Source\PSoC4/cyfitter_cfg.c **** 			CY_SET_REG8((void *)(baseAddr + data_table[j].offset), data_table[j].value);
  62              		.loc 1 185 0
  63 0014 6A00     		lsls	r2, r5, #1
  64 0016 8A18     		adds	r2, r1, r2
  65 0018 1478     		ldrb	r4, [r2]
  66 001a A419     		adds	r4, r4, r6
  67 001c 5278     		ldrb	r2, [r2, #1]
  68 001e 2270     		strb	r2, [r4]
 186:Generated_Source\PSoC4/cyfitter_cfg.c **** 			j++;
  69              		.loc 1 186 0
  70 0020 0135     		adds	r5, r5, #1
  71              	.LVL6:
 187:Generated_Source\PSoC4/cyfitter_cfg.c **** 			count--;
  72              		.loc 1 187 0
  73 0022 013B     		subs	r3, r3, #1
  74              	.LVL7:
  75 0024 DBB2     		uxtb	r3, r3
  76              	.LVL8:
  77              	.L3:
 183:Generated_Source\PSoC4/cyfitter_cfg.c **** 		{
  78              		.loc 1 183 0
  79 0026 002B     		cmp	r3, #0
  80 0028 F4D1     		bne	.L4
  81              	.LBE2:
 178:Generated_Source\PSoC4/cyfitter_cfg.c **** 	{
  82              		.loc 1 178 0 discriminator 2
  83 002a 0137     		adds	r7, r7, #1
  84              	.LVL9:
  85              	.L2:
 178:Generated_Source\PSoC4/cyfitter_cfg.c **** 	{
  86              		.loc 1 178 0 is_stmt 0 discriminator 1
  87 002c 072F     		cmp	r7, #7
  88 002e EBD9     		bls	.L5
 188:Generated_Source\PSoC4/cyfitter_cfg.c **** 		}
 189:Generated_Source\PSoC4/cyfitter_cfg.c **** 	}
 190:Generated_Source\PSoC4/cyfitter_cfg.c **** }
  89              		.loc 1 190 0 is_stmt 1
  90              		@ sp needed
  91              	.LVL10:
  92              	.LVL11:
ARM GAS  C:\Users\VIKTOR~1\AppData\Local\Temp\ccAP2xJU.s 			page 6


  93 0030 F0BD     		pop	{r4, r5, r6, r7, pc}
  94              		.cfi_endproc
  95              	.LFE4:
  96              		.size	cfg_write_bytes32, .-cfg_write_bytes32
  97 0032 C046     		.section	.text.AnalogSetDefault,"ax",%progbits
  98              		.align	2
  99              		.code	16
 100              		.thumb_func
 101              		.type	AnalogSetDefault, %function
 102              	AnalogSetDefault:
 103              	.LFB6:
 191:Generated_Source\PSoC4/cyfitter_cfg.c **** 
 192:Generated_Source\PSoC4/cyfitter_cfg.c **** 
 193:Generated_Source\PSoC4/cyfitter_cfg.c **** /*******************************************************************************
 194:Generated_Source\PSoC4/cyfitter_cfg.c **** * Function Name: ClockSetup
 195:Generated_Source\PSoC4/cyfitter_cfg.c **** ********************************************************************************
 196:Generated_Source\PSoC4/cyfitter_cfg.c **** *
 197:Generated_Source\PSoC4/cyfitter_cfg.c **** * Summary:
 198:Generated_Source\PSoC4/cyfitter_cfg.c **** *   Performs the initialization of all of the clocks in the device based on the
 199:Generated_Source\PSoC4/cyfitter_cfg.c **** *   settings in the Clock tab of the DWR.  This includes enabling the requested
 200:Generated_Source\PSoC4/cyfitter_cfg.c **** *   clocks and setting the necessary dividers to produce the desired frequency. 
 201:Generated_Source\PSoC4/cyfitter_cfg.c **** *
 202:Generated_Source\PSoC4/cyfitter_cfg.c **** * Parameters:
 203:Generated_Source\PSoC4/cyfitter_cfg.c **** *   void
 204:Generated_Source\PSoC4/cyfitter_cfg.c **** *
 205:Generated_Source\PSoC4/cyfitter_cfg.c **** * Return:
 206:Generated_Source\PSoC4/cyfitter_cfg.c **** *   void
 207:Generated_Source\PSoC4/cyfitter_cfg.c **** *
 208:Generated_Source\PSoC4/cyfitter_cfg.c **** *******************************************************************************/
 209:Generated_Source\PSoC4/cyfitter_cfg.c **** static void ClockSetup(void);
 210:Generated_Source\PSoC4/cyfitter_cfg.c **** CY_CFG_SECTION
 211:Generated_Source\PSoC4/cyfitter_cfg.c **** static void ClockSetup(void)
 212:Generated_Source\PSoC4/cyfitter_cfg.c **** {
 213:Generated_Source\PSoC4/cyfitter_cfg.c **** 
 214:Generated_Source\PSoC4/cyfitter_cfg.c **** 	/* Set Flash Cycles based on max possible frequency in case a glitch occurs during ClockSetup(). *
 215:Generated_Source\PSoC4/cyfitter_cfg.c **** 	CY_SET_REG32((void CYXDATA *)(CYREG_CPUSS_FLASH_CTL), (0x0012u));
 216:Generated_Source\PSoC4/cyfitter_cfg.c **** 	/* Setup and trim IMO based on desired frequency. */
 217:Generated_Source\PSoC4/cyfitter_cfg.c **** 	CySysClkWriteImoFreq(48u);
 218:Generated_Source\PSoC4/cyfitter_cfg.c **** 	/* CYDEV_CLK_ILO_CONFIG Starting address: CYDEV_CLK_ILO_CONFIG */
 219:Generated_Source\PSoC4/cyfitter_cfg.c **** 	CY_SET_REG32((void *)(CYREG_CLK_ILO_CONFIG), 0x80000006u);
 220:Generated_Source\PSoC4/cyfitter_cfg.c **** 
 221:Generated_Source\PSoC4/cyfitter_cfg.c **** 
 222:Generated_Source\PSoC4/cyfitter_cfg.c **** 	/* Setup phase aligned clocks */
 223:Generated_Source\PSoC4/cyfitter_cfg.c **** 	CY_SET_REG32((void *)CYREG_PERI_DIV_16_CTL1, 0x00BB7F00u);
 224:Generated_Source\PSoC4/cyfitter_cfg.c **** 	CY_SET_REG32((void *)CYREG_PERI_DIV_CMD, 0x8000FF41u);
 225:Generated_Source\PSoC4/cyfitter_cfg.c **** 	CY_SET_REG32((void *)CYREG_PERI_DIV_16_CTL2, 0x00BB7F00u);
 226:Generated_Source\PSoC4/cyfitter_cfg.c **** 	CY_SET_REG32((void *)CYREG_PERI_DIV_CMD, 0x8000FF42u);
 227:Generated_Source\PSoC4/cyfitter_cfg.c **** 	CY_SET_REG32((void *)CYREG_PERI_DIV_16_CTL0, 0x00BB7F00u);
 228:Generated_Source\PSoC4/cyfitter_cfg.c **** 	CY_SET_REG32((void *)CYREG_PERI_DIV_CMD, 0x8000FF40u);
 229:Generated_Source\PSoC4/cyfitter_cfg.c **** 
 230:Generated_Source\PSoC4/cyfitter_cfg.c **** 	/* CYDEV_CLK_IMO_CONFIG Starting address: CYDEV_CLK_IMO_CONFIG */
 231:Generated_Source\PSoC4/cyfitter_cfg.c **** 	CY_SET_REG32((void *)(CYREG_CLK_IMO_CONFIG), 0x80000000u);
 232:Generated_Source\PSoC4/cyfitter_cfg.c **** 
 233:Generated_Source\PSoC4/cyfitter_cfg.c **** 	/* CYDEV_CLK_SELECT Starting address: CYDEV_CLK_SELECT */
 234:Generated_Source\PSoC4/cyfitter_cfg.c **** 	CY_SET_REG32((void *)(CYREG_CLK_SELECT), 0x00040000u);
 235:Generated_Source\PSoC4/cyfitter_cfg.c **** 
 236:Generated_Source\PSoC4/cyfitter_cfg.c **** 	/* CYDEV_PERI_PCLK_CTL19 Starting address: CYDEV_PERI_PCLK_CTL19 */
ARM GAS  C:\Users\VIKTOR~1\AppData\Local\Temp\ccAP2xJU.s 			page 7


 237:Generated_Source\PSoC4/cyfitter_cfg.c **** 	CY_SET_REG32((void *)(CYREG_PERI_PCLK_CTL19), 0x00000041u);
 238:Generated_Source\PSoC4/cyfitter_cfg.c **** 
 239:Generated_Source\PSoC4/cyfitter_cfg.c **** 	/* CYDEV_PERI_PCLK_CTL12 Starting address: CYDEV_PERI_PCLK_CTL12 */
 240:Generated_Source\PSoC4/cyfitter_cfg.c **** 	CY_SET_REG32((void *)(CYREG_PERI_PCLK_CTL12), 0x00000042u);
 241:Generated_Source\PSoC4/cyfitter_cfg.c **** 
 242:Generated_Source\PSoC4/cyfitter_cfg.c **** 	/* CYDEV_PERI_PCLK_CTL11 Starting address: CYDEV_PERI_PCLK_CTL11 */
 243:Generated_Source\PSoC4/cyfitter_cfg.c **** 	CY_SET_REG32((void *)(CYREG_PERI_PCLK_CTL11), 0x00000040u);
 244:Generated_Source\PSoC4/cyfitter_cfg.c **** 
 245:Generated_Source\PSoC4/cyfitter_cfg.c **** 	(void)CyIntSetVector(7u, &CySysWdtIsr);
 246:Generated_Source\PSoC4/cyfitter_cfg.c **** 	CyIntEnable(7u);
 247:Generated_Source\PSoC4/cyfitter_cfg.c **** 	CY_SET_REG32((void *)(CYREG_WDT_CONFIG), 0x00000000u);
 248:Generated_Source\PSoC4/cyfitter_cfg.c **** }
 249:Generated_Source\PSoC4/cyfitter_cfg.c **** 
 250:Generated_Source\PSoC4/cyfitter_cfg.c **** 
 251:Generated_Source\PSoC4/cyfitter_cfg.c **** /* Analog API Functions */
 252:Generated_Source\PSoC4/cyfitter_cfg.c **** 
 253:Generated_Source\PSoC4/cyfitter_cfg.c **** 
 254:Generated_Source\PSoC4/cyfitter_cfg.c **** /*******************************************************************************
 255:Generated_Source\PSoC4/cyfitter_cfg.c **** * Function Name: AnalogSetDefault
 256:Generated_Source\PSoC4/cyfitter_cfg.c **** ********************************************************************************
 257:Generated_Source\PSoC4/cyfitter_cfg.c **** *
 258:Generated_Source\PSoC4/cyfitter_cfg.c **** * Summary:
 259:Generated_Source\PSoC4/cyfitter_cfg.c **** *  Sets up the analog portions of the chip to default values based on chip
 260:Generated_Source\PSoC4/cyfitter_cfg.c **** *  configuration options from the project.
 261:Generated_Source\PSoC4/cyfitter_cfg.c **** *
 262:Generated_Source\PSoC4/cyfitter_cfg.c **** * Parameters:
 263:Generated_Source\PSoC4/cyfitter_cfg.c **** *  void
 264:Generated_Source\PSoC4/cyfitter_cfg.c **** *
 265:Generated_Source\PSoC4/cyfitter_cfg.c **** * Return:
 266:Generated_Source\PSoC4/cyfitter_cfg.c **** *  void
 267:Generated_Source\PSoC4/cyfitter_cfg.c **** *
 268:Generated_Source\PSoC4/cyfitter_cfg.c **** *******************************************************************************/
 269:Generated_Source\PSoC4/cyfitter_cfg.c **** static void AnalogSetDefault(void);
 270:Generated_Source\PSoC4/cyfitter_cfg.c **** static void AnalogSetDefault(void)
 271:Generated_Source\PSoC4/cyfitter_cfg.c **** {
 104              		.loc 1 271 0
 105              		.cfi_startproc
 106              		@ args = 0, pretend = 0, frame = 0
 107              		@ frame_needed = 0, uses_anonymous_args = 0
 108              		@ link register save eliminated.
 272:Generated_Source\PSoC4/cyfitter_cfg.c **** 	CY_SET_XTND_REG32((void CYFAR *)CYREG_CTBM0_DFT_CTRL, 0x00000003u);
 109              		.loc 1 272 0
 110 0000 0323     		movs	r3, #3
 111 0002 044A     		ldr	r2, .L7
 112 0004 1360     		str	r3, [r2]
 273:Generated_Source\PSoC4/cyfitter_cfg.c **** 	CY_SET_XTND_REG32((void CYFAR *)CYREG_CTBM1_DFT_CTRL, 0x00000003u);
 113              		.loc 1 273 0
 114 0006 044A     		ldr	r2, .L7+4
 115 0008 1360     		str	r3, [r2]
 274:Generated_Source\PSoC4/cyfitter_cfg.c **** 	CY_SET_XTND_REG32((void CYFAR *)CYREG_PASS_DSAB_DSAB_CTRL, 0x00000000u);
 116              		.loc 1 274 0
 117 000a 0022     		movs	r2, #0
 118 000c 034B     		ldr	r3, .L7+8
 119 000e 1A60     		str	r2, [r3]
 275:Generated_Source\PSoC4/cyfitter_cfg.c **** }
 120              		.loc 1 275 0
 121              		@ sp needed
ARM GAS  C:\Users\VIKTOR~1\AppData\Local\Temp\ccAP2xJU.s 			page 8


 122 0010 7047     		bx	lr
 123              	.L8:
 124 0012 C046     		.align	2
 125              	.L7:
 126 0014 30003040 		.word	1076887600
 127 0018 30003140 		.word	1076953136
 128 001c 000E3F40 		.word	1077874176
 129              		.cfi_endproc
 130              	.LFE6:
 131              		.size	AnalogSetDefault, .-AnalogSetDefault
 132              		.section	.text.CYMEMZERO,"ax",%progbits
 133              		.align	2
 134              		.code	16
 135              		.thumb_func
 136              		.type	CYMEMZERO, %function
 137              	CYMEMZERO:
 138              	.LFB1:
  77:Generated_Source\PSoC4/cyfitter_cfg.c **** 	(void)memset(s, 0, n);
 139              		.loc 1 77 0
 140              		.cfi_startproc
 141              		@ args = 0, pretend = 0, frame = 0
 142              		@ frame_needed = 0, uses_anonymous_args = 0
 143              	.LVL12:
 144 0000 10B5     		push	{r4, lr}
 145              		.cfi_def_cfa_offset 8
 146              		.cfi_offset 4, -8
 147              		.cfi_offset 14, -4
 148 0002 0A00     		movs	r2, r1
  78:Generated_Source\PSoC4/cyfitter_cfg.c **** }
 149              		.loc 1 78 0
 150 0004 0021     		movs	r1, #0
 151              	.LVL13:
 152 0006 FFF7FEFF 		bl	memset
 153              	.LVL14:
  79:Generated_Source\PSoC4/cyfitter_cfg.c **** CY_CFG_UNUSED
 154              		.loc 1 79 0
 155              		@ sp needed
 156 000a 10BD     		pop	{r4, pc}
 157              		.cfi_endproc
 158              	.LFE1:
 159              		.size	CYMEMZERO, .-CYMEMZERO
 160              		.section	.psocinit,"ax",%progbits
 161              		.align	2
 162              		.code	16
 163              		.thumb_func
 164              		.type	ClockSetup, %function
 165              	ClockSetup:
 166              	.LFB5:
 212:Generated_Source\PSoC4/cyfitter_cfg.c **** 
 167              		.loc 1 212 0
 168              		.cfi_startproc
 169              		@ args = 0, pretend = 0, frame = 0
 170              		@ frame_needed = 0, uses_anonymous_args = 0
 171 0000 10B5     		push	{r4, lr}
 172              		.cfi_def_cfa_offset 8
 173              		.cfi_offset 4, -8
 174              		.cfi_offset 14, -4
ARM GAS  C:\Users\VIKTOR~1\AppData\Local\Temp\ccAP2xJU.s 			page 9


 215:Generated_Source\PSoC4/cyfitter_cfg.c **** 	/* Setup and trim IMO based on desired frequency. */
 175              		.loc 1 215 0
 176 0002 1222     		movs	r2, #18
 177 0004 184B     		ldr	r3, .L11
 178 0006 1A60     		str	r2, [r3]
 217:Generated_Source\PSoC4/cyfitter_cfg.c **** 	/* CYDEV_CLK_ILO_CONFIG Starting address: CYDEV_CLK_ILO_CONFIG */
 179              		.loc 1 217 0
 180 0008 3020     		movs	r0, #48
 181 000a FFF7FEFF 		bl	CySysClkWriteImoFreq
 182              	.LVL15:
 219:Generated_Source\PSoC4/cyfitter_cfg.c **** 
 183              		.loc 1 219 0
 184 000e 174A     		ldr	r2, .L11+4
 185 0010 174B     		ldr	r3, .L11+8
 186 0012 1A60     		str	r2, [r3]
 223:Generated_Source\PSoC4/cyfitter_cfg.c **** 	CY_SET_REG32((void *)CYREG_PERI_DIV_CMD, 0x8000FF41u);
 187              		.loc 1 223 0
 188 0014 174A     		ldr	r2, .L11+12
 189 0016 184B     		ldr	r3, .L11+16
 190 0018 1A60     		str	r2, [r3]
 224:Generated_Source\PSoC4/cyfitter_cfg.c **** 	CY_SET_REG32((void *)CYREG_PERI_DIV_16_CTL2, 0x00BB7F00u);
 191              		.loc 1 224 0
 192 001a 184B     		ldr	r3, .L11+20
 193 001c 1849     		ldr	r1, .L11+24
 194 001e 1960     		str	r1, [r3]
 225:Generated_Source\PSoC4/cyfitter_cfg.c **** 	CY_SET_REG32((void *)CYREG_PERI_DIV_CMD, 0x8000FF42u);
 195              		.loc 1 225 0
 196 0020 1849     		ldr	r1, .L11+28
 197 0022 0A60     		str	r2, [r1]
 226:Generated_Source\PSoC4/cyfitter_cfg.c **** 	CY_SET_REG32((void *)CYREG_PERI_DIV_16_CTL0, 0x00BB7F00u);
 198              		.loc 1 226 0
 199 0024 1849     		ldr	r1, .L11+32
 200 0026 1960     		str	r1, [r3]
 227:Generated_Source\PSoC4/cyfitter_cfg.c **** 	CY_SET_REG32((void *)CYREG_PERI_DIV_CMD, 0x8000FF40u);
 201              		.loc 1 227 0
 202 0028 1849     		ldr	r1, .L11+36
 203 002a 0A60     		str	r2, [r1]
 228:Generated_Source\PSoC4/cyfitter_cfg.c **** 
 204              		.loc 1 228 0
 205 002c 184A     		ldr	r2, .L11+40
 206 002e 1A60     		str	r2, [r3]
 231:Generated_Source\PSoC4/cyfitter_cfg.c **** 
 207              		.loc 1 231 0
 208 0030 8022     		movs	r2, #128
 209 0032 1206     		lsls	r2, r2, #24
 210 0034 174B     		ldr	r3, .L11+44
 211 0036 1A60     		str	r2, [r3]
 234:Generated_Source\PSoC4/cyfitter_cfg.c **** 
 212              		.loc 1 234 0
 213 0038 8022     		movs	r2, #128
 214 003a D202     		lsls	r2, r2, #11
 215 003c 164B     		ldr	r3, .L11+48
 216 003e 1A60     		str	r2, [r3]
 237:Generated_Source\PSoC4/cyfitter_cfg.c **** 
 217              		.loc 1 237 0
 218 0040 4122     		movs	r2, #65
 219 0042 164B     		ldr	r3, .L11+52
ARM GAS  C:\Users\VIKTOR~1\AppData\Local\Temp\ccAP2xJU.s 			page 10


 220 0044 1A60     		str	r2, [r3]
 240:Generated_Source\PSoC4/cyfitter_cfg.c **** 
 221              		.loc 1 240 0
 222 0046 0132     		adds	r2, r2, #1
 223 0048 154B     		ldr	r3, .L11+56
 224 004a 1A60     		str	r2, [r3]
 243:Generated_Source\PSoC4/cyfitter_cfg.c **** 
 225              		.loc 1 243 0
 226 004c 023A     		subs	r2, r2, #2
 227 004e 154B     		ldr	r3, .L11+60
 228 0050 1A60     		str	r2, [r3]
 245:Generated_Source\PSoC4/cyfitter_cfg.c **** 	CyIntEnable(7u);
 229              		.loc 1 245 0
 230 0052 1549     		ldr	r1, .L11+64
 231 0054 0720     		movs	r0, #7
 232 0056 FFF7FEFF 		bl	CyIntSetVector
 233              	.LVL16:
 246:Generated_Source\PSoC4/cyfitter_cfg.c **** 	CY_SET_REG32((void *)(CYREG_WDT_CONFIG), 0x00000000u);
 234              		.loc 1 246 0
 235 005a 0720     		movs	r0, #7
 236 005c FFF7FEFF 		bl	CyIntEnable
 237              	.LVL17:
 247:Generated_Source\PSoC4/cyfitter_cfg.c **** }
 238              		.loc 1 247 0
 239 0060 0022     		movs	r2, #0
 240 0062 124B     		ldr	r3, .L11+68
 241 0064 1A60     		str	r2, [r3]
 248:Generated_Source\PSoC4/cyfitter_cfg.c **** 
 242              		.loc 1 248 0
 243              		@ sp needed
 244 0066 10BD     		pop	{r4, pc}
 245              	.L12:
 246              		.align	2
 247              	.L11:
 248 0068 30001040 		.word	1074790448
 249 006c 06000080 		.word	-2147483642
 250 0070 04010B40 		.word	1074462980
 251 0074 007FBB00 		.word	12287744
 252 0078 04030140 		.word	1073808132
 253 007c 00000140 		.word	1073807360
 254 0080 41FF0080 		.word	-2147418303
 255 0084 08030140 		.word	1073808136
 256 0088 42FF0080 		.word	-2147418302
 257 008c 00030140 		.word	1073808128
 258 0090 40FF0080 		.word	-2147418304
 259 0094 08010B40 		.word	1074462984
 260 0098 00010B40 		.word	1074462976
 261 009c 4C010140 		.word	1073807692
 262 00a0 30010140 		.word	1073807664
 263 00a4 2C010140 		.word	1073807660
 264 00a8 00000000 		.word	CySysWdtIsr
 265 00ac 0C020B40 		.word	1074463244
 266              		.cfi_endproc
 267              	.LFE5:
 268              		.size	ClockSetup, .-ClockSetup
 269              		.align	2
 270              		.global	cyfitter_cfg
ARM GAS  C:\Users\VIKTOR~1\AppData\Local\Temp\ccAP2xJU.s 			page 11


 271              		.code	16
 272              		.thumb_func
 273              		.type	cyfitter_cfg, %function
 274              	cyfitter_cfg:
 275              	.LFB7:
 276:Generated_Source\PSoC4/cyfitter_cfg.c **** 
 277:Generated_Source\PSoC4/cyfitter_cfg.c **** 
 278:Generated_Source\PSoC4/cyfitter_cfg.c **** 
 279:Generated_Source\PSoC4/cyfitter_cfg.c **** 
 280:Generated_Source\PSoC4/cyfitter_cfg.c **** /*******************************************************************************
 281:Generated_Source\PSoC4/cyfitter_cfg.c **** * Function Name: cyfitter_cfg
 282:Generated_Source\PSoC4/cyfitter_cfg.c **** ********************************************************************************
 283:Generated_Source\PSoC4/cyfitter_cfg.c **** * Summary:
 284:Generated_Source\PSoC4/cyfitter_cfg.c **** *  This function is called by the start-up code for the selected device. It
 285:Generated_Source\PSoC4/cyfitter_cfg.c **** *  performs all of the necessary device configuration based on the design
 286:Generated_Source\PSoC4/cyfitter_cfg.c **** *  settings.  This includes settings from the Design Wide Resources (DWR) such
 287:Generated_Source\PSoC4/cyfitter_cfg.c **** *  as Clocks and Pins as well as any component configuration that is necessary.
 288:Generated_Source\PSoC4/cyfitter_cfg.c **** *
 289:Generated_Source\PSoC4/cyfitter_cfg.c **** * Parameters:
 290:Generated_Source\PSoC4/cyfitter_cfg.c **** *   void
 291:Generated_Source\PSoC4/cyfitter_cfg.c **** *
 292:Generated_Source\PSoC4/cyfitter_cfg.c **** * Return:
 293:Generated_Source\PSoC4/cyfitter_cfg.c **** *   void
 294:Generated_Source\PSoC4/cyfitter_cfg.c **** *
 295:Generated_Source\PSoC4/cyfitter_cfg.c **** *******************************************************************************/
 296:Generated_Source\PSoC4/cyfitter_cfg.c **** CY_CFG_SECTION
 297:Generated_Source\PSoC4/cyfitter_cfg.c **** void cyfitter_cfg(void)
 298:Generated_Source\PSoC4/cyfitter_cfg.c **** {
 276              		.loc 1 298 0
 277              		.cfi_startproc
 278              		@ args = 0, pretend = 0, frame = 0
 279              		@ frame_needed = 0, uses_anonymous_args = 0
 280 00b0 10B5     		push	{r4, lr}
 281              		.cfi_def_cfa_offset 8
 282              		.cfi_offset 4, -8
 283              		.cfi_offset 14, -4
 299:Generated_Source\PSoC4/cyfitter_cfg.c **** 	/* Disable interrupts by default. Let user enable if/when they want. */
 300:Generated_Source\PSoC4/cyfitter_cfg.c **** 	CyGlobalIntDisable;
 284              		.loc 1 300 0
 285              		.syntax divided
 286              	@ 300 "Generated_Source\PSoC4\cyfitter_cfg.c" 1
 287 00b2 72B6     		CPSID   i
 288              	@ 0 "" 2
 289              	.LVL18:
 290              		.thumb
 291              		.syntax unified
 292              	.LBB3:
 301:Generated_Source\PSoC4/cyfitter_cfg.c **** 
 302:Generated_Source\PSoC4/cyfitter_cfg.c **** 	{
 303:Generated_Source\PSoC4/cyfitter_cfg.c **** 		static const uint32 CYCODE cy_cfg_addr_table[] = {
 304:Generated_Source\PSoC4/cyfitter_cfg.c **** 			0x400F0002u, /* Base address: 0x400F0000 Count: 2 */
 305:Generated_Source\PSoC4/cyfitter_cfg.c **** 			0x400F305Fu, /* Base address: 0x400F3000 Count: 95 */
 306:Generated_Source\PSoC4/cyfitter_cfg.c **** 			0x400F3137u, /* Base address: 0x400F3100 Count: 55 */
 307:Generated_Source\PSoC4/cyfitter_cfg.c **** 			0x400F3234u, /* Base address: 0x400F3200 Count: 52 */
 308:Generated_Source\PSoC4/cyfitter_cfg.c **** 			0x400F3347u, /* Base address: 0x400F3300 Count: 71 */
 309:Generated_Source\PSoC4/cyfitter_cfg.c **** 			0x400F4209u, /* Base address: 0x400F4200 Count: 9 */
 310:Generated_Source\PSoC4/cyfitter_cfg.c **** 			0x400F4310u, /* Base address: 0x400F4300 Count: 16 */
ARM GAS  C:\Users\VIKTOR~1\AppData\Local\Temp\ccAP2xJU.s 			page 12


 311:Generated_Source\PSoC4/cyfitter_cfg.c **** 			0x400F6002u, /* Base address: 0x400F6000 Count: 2 */
 312:Generated_Source\PSoC4/cyfitter_cfg.c **** 		};
 313:Generated_Source\PSoC4/cyfitter_cfg.c **** 
 314:Generated_Source\PSoC4/cyfitter_cfg.c **** 		static const cy_cfg_addrvalue_t CYCODE cy_cfg_data_table[] = {
 315:Generated_Source\PSoC4/cyfitter_cfg.c **** 			{0x82u, 0x6Fu},
 316:Generated_Source\PSoC4/cyfitter_cfg.c **** 			{0x83u, 0x0Fu},
 317:Generated_Source\PSoC4/cyfitter_cfg.c **** 			{0x01u, 0x9Eu},
 318:Generated_Source\PSoC4/cyfitter_cfg.c **** 			{0x03u, 0x60u},
 319:Generated_Source\PSoC4/cyfitter_cfg.c **** 			{0x05u, 0x73u},
 320:Generated_Source\PSoC4/cyfitter_cfg.c **** 			{0x06u, 0x70u},
 321:Generated_Source\PSoC4/cyfitter_cfg.c **** 			{0x09u, 0xCFu},
 322:Generated_Source\PSoC4/cyfitter_cfg.c **** 			{0x0Bu, 0x30u},
 323:Generated_Source\PSoC4/cyfitter_cfg.c **** 			{0x0Cu, 0x1Cu},
 324:Generated_Source\PSoC4/cyfitter_cfg.c **** 			{0x0Eu, 0x22u},
 325:Generated_Source\PSoC4/cyfitter_cfg.c **** 			{0x10u, 0x7Bu},
 326:Generated_Source\PSoC4/cyfitter_cfg.c **** 			{0x11u, 0x30u},
 327:Generated_Source\PSoC4/cyfitter_cfg.c **** 			{0x12u, 0x04u},
 328:Generated_Source\PSoC4/cyfitter_cfg.c **** 			{0x13u, 0xC9u},
 329:Generated_Source\PSoC4/cyfitter_cfg.c **** 			{0x14u, 0x0Cu},
 330:Generated_Source\PSoC4/cyfitter_cfg.c **** 			{0x16u, 0x41u},
 331:Generated_Source\PSoC4/cyfitter_cfg.c **** 			{0x17u, 0x0Fu},
 332:Generated_Source\PSoC4/cyfitter_cfg.c **** 			{0x22u, 0x80u},
 333:Generated_Source\PSoC4/cyfitter_cfg.c **** 			{0x24u, 0x77u},
 334:Generated_Source\PSoC4/cyfitter_cfg.c **** 			{0x28u, 0x18u},
 335:Generated_Source\PSoC4/cyfitter_cfg.c **** 			{0x29u, 0x94u},
 336:Generated_Source\PSoC4/cyfitter_cfg.c **** 			{0x2Au, 0x21u},
 337:Generated_Source\PSoC4/cyfitter_cfg.c **** 			{0x2Bu, 0x60u},
 338:Generated_Source\PSoC4/cyfitter_cfg.c **** 			{0x2Cu, 0x40u},
 339:Generated_Source\PSoC4/cyfitter_cfg.c **** 			{0x2Du, 0xFDu},
 340:Generated_Source\PSoC4/cyfitter_cfg.c **** 			{0x2Eu, 0x0Fu},
 341:Generated_Source\PSoC4/cyfitter_cfg.c **** 			{0x2Fu, 0x02u},
 342:Generated_Source\PSoC4/cyfitter_cfg.c **** 			{0x34u, 0xF0u},
 343:Generated_Source\PSoC4/cyfitter_cfg.c **** 			{0x36u, 0x0Fu},
 344:Generated_Source\PSoC4/cyfitter_cfg.c **** 			{0x37u, 0xFFu},
 345:Generated_Source\PSoC4/cyfitter_cfg.c **** 			{0x3Fu, 0x40u},
 346:Generated_Source\PSoC4/cyfitter_cfg.c **** 			{0x58u, 0x04u},
 347:Generated_Source\PSoC4/cyfitter_cfg.c **** 			{0x59u, 0x04u},
 348:Generated_Source\PSoC4/cyfitter_cfg.c **** 			{0x5Fu, 0x01u},
 349:Generated_Source\PSoC4/cyfitter_cfg.c **** 			{0x80u, 0x5Au},
 350:Generated_Source\PSoC4/cyfitter_cfg.c **** 			{0x81u, 0x80u},
 351:Generated_Source\PSoC4/cyfitter_cfg.c **** 			{0x82u, 0x25u},
 352:Generated_Source\PSoC4/cyfitter_cfg.c **** 			{0x84u, 0x80u},
 353:Generated_Source\PSoC4/cyfitter_cfg.c **** 			{0x85u, 0x6Cu},
 354:Generated_Source\PSoC4/cyfitter_cfg.c **** 			{0x87u, 0x02u},
 355:Generated_Source\PSoC4/cyfitter_cfg.c **** 			{0x88u, 0x37u},
 356:Generated_Source\PSoC4/cyfitter_cfg.c **** 			{0x8Cu, 0x6Fu},
 357:Generated_Source\PSoC4/cyfitter_cfg.c **** 			{0x8Du, 0x80u},
 358:Generated_Source\PSoC4/cyfitter_cfg.c **** 			{0x8Eu, 0x10u},
 359:Generated_Source\PSoC4/cyfitter_cfg.c **** 			{0x90u, 0x25u},
 360:Generated_Source\PSoC4/cyfitter_cfg.c **** 			{0x91u, 0x08u},
 361:Generated_Source\PSoC4/cyfitter_cfg.c **** 			{0x92u, 0x4Au},
 362:Generated_Source\PSoC4/cyfitter_cfg.c **** 			{0x93u, 0x01u},
 363:Generated_Source\PSoC4/cyfitter_cfg.c **** 			{0x95u, 0xB7u},
 364:Generated_Source\PSoC4/cyfitter_cfg.c **** 			{0x96u, 0x90u},
 365:Generated_Source\PSoC4/cyfitter_cfg.c **** 			{0x98u, 0x7Cu},
 366:Generated_Source\PSoC4/cyfitter_cfg.c **** 			{0x9Au, 0x03u},
 367:Generated_Source\PSoC4/cyfitter_cfg.c **** 			{0x9Du, 0x6Cu},
ARM GAS  C:\Users\VIKTOR~1\AppData\Local\Temp\ccAP2xJU.s 			page 13


 368:Generated_Source\PSoC4/cyfitter_cfg.c **** 			{0x9Fu, 0x01u},
 369:Generated_Source\PSoC4/cyfitter_cfg.c **** 			{0xA1u, 0x5Bu},
 370:Generated_Source\PSoC4/cyfitter_cfg.c **** 			{0xA2u, 0x80u},
 371:Generated_Source\PSoC4/cyfitter_cfg.c **** 			{0xA3u, 0x04u},
 372:Generated_Source\PSoC4/cyfitter_cfg.c **** 			{0xA4u, 0x63u},
 373:Generated_Source\PSoC4/cyfitter_cfg.c **** 			{0xA6u, 0x0Cu},
 374:Generated_Source\PSoC4/cyfitter_cfg.c **** 			{0xABu, 0x0Fu},
 375:Generated_Source\PSoC4/cyfitter_cfg.c **** 			{0xB1u, 0x80u},
 376:Generated_Source\PSoC4/cyfitter_cfg.c **** 			{0xB2u, 0x70u},
 377:Generated_Source\PSoC4/cyfitter_cfg.c **** 			{0xB3u, 0x0Fu},
 378:Generated_Source\PSoC4/cyfitter_cfg.c **** 			{0xB4u, 0x80u},
 379:Generated_Source\PSoC4/cyfitter_cfg.c **** 			{0xB5u, 0x70u},
 380:Generated_Source\PSoC4/cyfitter_cfg.c **** 			{0xB6u, 0x0Fu},
 381:Generated_Source\PSoC4/cyfitter_cfg.c **** 			{0xB9u, 0x22u},
 382:Generated_Source\PSoC4/cyfitter_cfg.c **** 			{0xBEu, 0x10u},
 383:Generated_Source\PSoC4/cyfitter_cfg.c **** 			{0xBFu, 0x01u},
 384:Generated_Source\PSoC4/cyfitter_cfg.c **** 			{0xC0u, 0x21u},
 385:Generated_Source\PSoC4/cyfitter_cfg.c **** 			{0xC1u, 0x06u},
 386:Generated_Source\PSoC4/cyfitter_cfg.c **** 			{0xC5u, 0x2Cu},
 387:Generated_Source\PSoC4/cyfitter_cfg.c **** 			{0xC6u, 0x03u},
 388:Generated_Source\PSoC4/cyfitter_cfg.c **** 			{0xC7u, 0x4Eu},
 389:Generated_Source\PSoC4/cyfitter_cfg.c **** 			{0xC8u, 0x37u},
 390:Generated_Source\PSoC4/cyfitter_cfg.c **** 			{0xC9u, 0xFFu},
 391:Generated_Source\PSoC4/cyfitter_cfg.c **** 			{0xCAu, 0xFFu},
 392:Generated_Source\PSoC4/cyfitter_cfg.c **** 			{0xCBu, 0xFFu},
 393:Generated_Source\PSoC4/cyfitter_cfg.c **** 			{0xCDu, 0xA0u},
 394:Generated_Source\PSoC4/cyfitter_cfg.c **** 			{0xCFu, 0x01u},
 395:Generated_Source\PSoC4/cyfitter_cfg.c **** 			{0xD0u, 0x18u},
 396:Generated_Source\PSoC4/cyfitter_cfg.c **** 			{0xD2u, 0x80u},
 397:Generated_Source\PSoC4/cyfitter_cfg.c **** 			{0xD8u, 0x04u},
 398:Generated_Source\PSoC4/cyfitter_cfg.c **** 			{0xD9u, 0x04u},
 399:Generated_Source\PSoC4/cyfitter_cfg.c **** 			{0xDAu, 0x04u},
 400:Generated_Source\PSoC4/cyfitter_cfg.c **** 			{0xDBu, 0x04u},
 401:Generated_Source\PSoC4/cyfitter_cfg.c **** 			{0xDFu, 0x01u},
 402:Generated_Source\PSoC4/cyfitter_cfg.c **** 			{0xE0u, 0x40u},
 403:Generated_Source\PSoC4/cyfitter_cfg.c **** 			{0xE2u, 0x80u},
 404:Generated_Source\PSoC4/cyfitter_cfg.c **** 			{0xE4u, 0x40u},
 405:Generated_Source\PSoC4/cyfitter_cfg.c **** 			{0xE5u, 0x40u},
 406:Generated_Source\PSoC4/cyfitter_cfg.c **** 			{0xE6u, 0x80u},
 407:Generated_Source\PSoC4/cyfitter_cfg.c **** 			{0xE8u, 0x40u},
 408:Generated_Source\PSoC4/cyfitter_cfg.c **** 			{0xEAu, 0x80u},
 409:Generated_Source\PSoC4/cyfitter_cfg.c **** 			{0xECu, 0x40u},
 410:Generated_Source\PSoC4/cyfitter_cfg.c **** 			{0xEDu, 0x20u},
 411:Generated_Source\PSoC4/cyfitter_cfg.c **** 			{0xEEu, 0x80u},
 412:Generated_Source\PSoC4/cyfitter_cfg.c **** 			{0x01u, 0x80u},
 413:Generated_Source\PSoC4/cyfitter_cfg.c **** 			{0x03u, 0x20u},
 414:Generated_Source\PSoC4/cyfitter_cfg.c **** 			{0x04u, 0x02u},
 415:Generated_Source\PSoC4/cyfitter_cfg.c **** 			{0x05u, 0x40u},
 416:Generated_Source\PSoC4/cyfitter_cfg.c **** 			{0x07u, 0x18u},
 417:Generated_Source\PSoC4/cyfitter_cfg.c **** 			{0x09u, 0x04u},
 418:Generated_Source\PSoC4/cyfitter_cfg.c **** 			{0x0Bu, 0x80u},
 419:Generated_Source\PSoC4/cyfitter_cfg.c **** 			{0x0Cu, 0x02u},
 420:Generated_Source\PSoC4/cyfitter_cfg.c **** 			{0x0Du, 0x02u},
 421:Generated_Source\PSoC4/cyfitter_cfg.c **** 			{0x0Eu, 0x28u},
 422:Generated_Source\PSoC4/cyfitter_cfg.c **** 			{0x10u, 0x06u},
 423:Generated_Source\PSoC4/cyfitter_cfg.c **** 			{0x12u, 0x80u},
 424:Generated_Source\PSoC4/cyfitter_cfg.c **** 			{0x13u, 0x08u},
ARM GAS  C:\Users\VIKTOR~1\AppData\Local\Temp\ccAP2xJU.s 			page 14


 425:Generated_Source\PSoC4/cyfitter_cfg.c **** 			{0x16u, 0xA0u},
 426:Generated_Source\PSoC4/cyfitter_cfg.c **** 			{0x18u, 0x02u},
 427:Generated_Source\PSoC4/cyfitter_cfg.c **** 			{0x19u, 0x80u},
 428:Generated_Source\PSoC4/cyfitter_cfg.c **** 			{0x1Au, 0x0Cu},
 429:Generated_Source\PSoC4/cyfitter_cfg.c **** 			{0x1Bu, 0x20u},
 430:Generated_Source\PSoC4/cyfitter_cfg.c **** 			{0x1Du, 0x60u},
 431:Generated_Source\PSoC4/cyfitter_cfg.c **** 			{0x1Eu, 0x20u},
 432:Generated_Source\PSoC4/cyfitter_cfg.c **** 			{0x1Fu, 0x40u},
 433:Generated_Source\PSoC4/cyfitter_cfg.c **** 			{0x22u, 0x80u},
 434:Generated_Source\PSoC4/cyfitter_cfg.c **** 			{0x24u, 0x24u},
 435:Generated_Source\PSoC4/cyfitter_cfg.c **** 			{0x25u, 0x04u},
 436:Generated_Source\PSoC4/cyfitter_cfg.c **** 			{0x26u, 0x04u},
 437:Generated_Source\PSoC4/cyfitter_cfg.c **** 			{0x27u, 0x4Cu},
 438:Generated_Source\PSoC4/cyfitter_cfg.c **** 			{0x28u, 0x06u},
 439:Generated_Source\PSoC4/cyfitter_cfg.c **** 			{0x29u, 0x60u},
 440:Generated_Source\PSoC4/cyfitter_cfg.c **** 			{0x2Au, 0x20u},
 441:Generated_Source\PSoC4/cyfitter_cfg.c **** 			{0x2Du, 0x20u},
 442:Generated_Source\PSoC4/cyfitter_cfg.c **** 			{0x2Fu, 0x40u},
 443:Generated_Source\PSoC4/cyfitter_cfg.c **** 			{0x31u, 0x02u},
 444:Generated_Source\PSoC4/cyfitter_cfg.c **** 			{0x32u, 0x04u},
 445:Generated_Source\PSoC4/cyfitter_cfg.c **** 			{0x33u, 0x01u},
 446:Generated_Source\PSoC4/cyfitter_cfg.c **** 			{0x35u, 0x80u},
 447:Generated_Source\PSoC4/cyfitter_cfg.c **** 			{0x37u, 0x09u},
 448:Generated_Source\PSoC4/cyfitter_cfg.c **** 			{0x38u, 0x26u},
 449:Generated_Source\PSoC4/cyfitter_cfg.c **** 			{0x3Du, 0x08u},
 450:Generated_Source\PSoC4/cyfitter_cfg.c **** 			{0x3Fu, 0x82u},
 451:Generated_Source\PSoC4/cyfitter_cfg.c **** 			{0x45u, 0x20u},
 452:Generated_Source\PSoC4/cyfitter_cfg.c **** 			{0x47u, 0x40u},
 453:Generated_Source\PSoC4/cyfitter_cfg.c **** 			{0x4Cu, 0x80u},
 454:Generated_Source\PSoC4/cyfitter_cfg.c **** 			{0x4Eu, 0x04u},
 455:Generated_Source\PSoC4/cyfitter_cfg.c **** 			{0x4Fu, 0x06u},
 456:Generated_Source\PSoC4/cyfitter_cfg.c **** 			{0x56u, 0x4Au},
 457:Generated_Source\PSoC4/cyfitter_cfg.c **** 			{0x57u, 0xC0u},
 458:Generated_Source\PSoC4/cyfitter_cfg.c **** 			{0x76u, 0x80u},
 459:Generated_Source\PSoC4/cyfitter_cfg.c **** 			{0xC0u, 0xF5u},
 460:Generated_Source\PSoC4/cyfitter_cfg.c **** 			{0xC2u, 0x7Cu},
 461:Generated_Source\PSoC4/cyfitter_cfg.c **** 			{0xC4u, 0x3Fu},
 462:Generated_Source\PSoC4/cyfitter_cfg.c **** 			{0xCAu, 0xACu},
 463:Generated_Source\PSoC4/cyfitter_cfg.c **** 			{0xCCu, 0xD3u},
 464:Generated_Source\PSoC4/cyfitter_cfg.c **** 			{0xCEu, 0xD7u},
 465:Generated_Source\PSoC4/cyfitter_cfg.c **** 			{0xD0u, 0x30u},
 466:Generated_Source\PSoC4/cyfitter_cfg.c **** 			{0xD2u, 0x20u},
 467:Generated_Source\PSoC4/cyfitter_cfg.c **** 			{0x00u, 0x07u},
 468:Generated_Source\PSoC4/cyfitter_cfg.c **** 			{0x03u, 0x01u},
 469:Generated_Source\PSoC4/cyfitter_cfg.c **** 			{0x06u, 0x06u},
 470:Generated_Source\PSoC4/cyfitter_cfg.c **** 			{0x0Eu, 0x01u},
 471:Generated_Source\PSoC4/cyfitter_cfg.c **** 			{0x18u, 0x04u},
 472:Generated_Source\PSoC4/cyfitter_cfg.c **** 			{0x1Au, 0x02u},
 473:Generated_Source\PSoC4/cyfitter_cfg.c **** 			{0x1Bu, 0x08u},
 474:Generated_Source\PSoC4/cyfitter_cfg.c **** 			{0x1Cu, 0x08u},
 475:Generated_Source\PSoC4/cyfitter_cfg.c **** 			{0x1Du, 0x04u},
 476:Generated_Source\PSoC4/cyfitter_cfg.c **** 			{0x20u, 0x08u},
 477:Generated_Source\PSoC4/cyfitter_cfg.c **** 			{0x23u, 0x06u},
 478:Generated_Source\PSoC4/cyfitter_cfg.c **** 			{0x30u, 0x01u},
 479:Generated_Source\PSoC4/cyfitter_cfg.c **** 			{0x31u, 0x02u},
 480:Generated_Source\PSoC4/cyfitter_cfg.c **** 			{0x32u, 0x08u},
 481:Generated_Source\PSoC4/cyfitter_cfg.c **** 			{0x33u, 0x08u},
ARM GAS  C:\Users\VIKTOR~1\AppData\Local\Temp\ccAP2xJU.s 			page 15


 482:Generated_Source\PSoC4/cyfitter_cfg.c **** 			{0x34u, 0x04u},
 483:Generated_Source\PSoC4/cyfitter_cfg.c **** 			{0x35u, 0x04u},
 484:Generated_Source\PSoC4/cyfitter_cfg.c **** 			{0x36u, 0x02u},
 485:Generated_Source\PSoC4/cyfitter_cfg.c **** 			{0x37u, 0x01u},
 486:Generated_Source\PSoC4/cyfitter_cfg.c **** 			{0x38u, 0x08u},
 487:Generated_Source\PSoC4/cyfitter_cfg.c **** 			{0x3Eu, 0x51u},
 488:Generated_Source\PSoC4/cyfitter_cfg.c **** 			{0x3Fu, 0x10u},
 489:Generated_Source\PSoC4/cyfitter_cfg.c **** 			{0x54u, 0x0Fu},
 490:Generated_Source\PSoC4/cyfitter_cfg.c **** 			{0x58u, 0x04u},
 491:Generated_Source\PSoC4/cyfitter_cfg.c **** 			{0x59u, 0x04u},
 492:Generated_Source\PSoC4/cyfitter_cfg.c **** 			{0x5Bu, 0x04u},
 493:Generated_Source\PSoC4/cyfitter_cfg.c **** 			{0x5Fu, 0x05u},
 494:Generated_Source\PSoC4/cyfitter_cfg.c **** 			{0x82u, 0x04u},
 495:Generated_Source\PSoC4/cyfitter_cfg.c **** 			{0x87u, 0x08u},
 496:Generated_Source\PSoC4/cyfitter_cfg.c **** 			{0x88u, 0x02u},
 497:Generated_Source\PSoC4/cyfitter_cfg.c **** 			{0x8Bu, 0x01u},
 498:Generated_Source\PSoC4/cyfitter_cfg.c **** 			{0x8Fu, 0x04u},
 499:Generated_Source\PSoC4/cyfitter_cfg.c **** 			{0x92u, 0x04u},
 500:Generated_Source\PSoC4/cyfitter_cfg.c **** 			{0x93u, 0x02u},
 501:Generated_Source\PSoC4/cyfitter_cfg.c **** 			{0x96u, 0x08u},
 502:Generated_Source\PSoC4/cyfitter_cfg.c **** 			{0x9Fu, 0x0Bu},
 503:Generated_Source\PSoC4/cyfitter_cfg.c **** 			{0xA2u, 0x03u},
 504:Generated_Source\PSoC4/cyfitter_cfg.c **** 			{0xB0u, 0x02u},
 505:Generated_Source\PSoC4/cyfitter_cfg.c **** 			{0xB1u, 0x04u},
 506:Generated_Source\PSoC4/cyfitter_cfg.c **** 			{0xB2u, 0x01u},
 507:Generated_Source\PSoC4/cyfitter_cfg.c **** 			{0xB3u, 0x01u},
 508:Generated_Source\PSoC4/cyfitter_cfg.c **** 			{0xB4u, 0x08u},
 509:Generated_Source\PSoC4/cyfitter_cfg.c **** 			{0xB5u, 0x08u},
 510:Generated_Source\PSoC4/cyfitter_cfg.c **** 			{0xB6u, 0x04u},
 511:Generated_Source\PSoC4/cyfitter_cfg.c **** 			{0xB7u, 0x02u},
 512:Generated_Source\PSoC4/cyfitter_cfg.c **** 			{0xBEu, 0x41u},
 513:Generated_Source\PSoC4/cyfitter_cfg.c **** 			{0xBFu, 0x54u},
 514:Generated_Source\PSoC4/cyfitter_cfg.c **** 			{0xD4u, 0x0Fu},
 515:Generated_Source\PSoC4/cyfitter_cfg.c **** 			{0xD8u, 0x04u},
 516:Generated_Source\PSoC4/cyfitter_cfg.c **** 			{0xD9u, 0x04u},
 517:Generated_Source\PSoC4/cyfitter_cfg.c **** 			{0xDBu, 0x04u},
 518:Generated_Source\PSoC4/cyfitter_cfg.c **** 			{0xDFu, 0x01u},
 519:Generated_Source\PSoC4/cyfitter_cfg.c **** 			{0x00u, 0x10u},
 520:Generated_Source\PSoC4/cyfitter_cfg.c **** 			{0x02u, 0x80u},
 521:Generated_Source\PSoC4/cyfitter_cfg.c **** 			{0x04u, 0x02u},
 522:Generated_Source\PSoC4/cyfitter_cfg.c **** 			{0x05u, 0x04u},
 523:Generated_Source\PSoC4/cyfitter_cfg.c **** 			{0x06u, 0x02u},
 524:Generated_Source\PSoC4/cyfitter_cfg.c **** 			{0x0Au, 0x60u},
 525:Generated_Source\PSoC4/cyfitter_cfg.c **** 			{0x0Cu, 0x80u},
 526:Generated_Source\PSoC4/cyfitter_cfg.c **** 			{0x0Eu, 0x04u},
 527:Generated_Source\PSoC4/cyfitter_cfg.c **** 			{0x10u, 0x80u},
 528:Generated_Source\PSoC4/cyfitter_cfg.c **** 			{0x16u, 0x40u},
 529:Generated_Source\PSoC4/cyfitter_cfg.c **** 			{0x18u, 0x10u},
 530:Generated_Source\PSoC4/cyfitter_cfg.c **** 			{0x19u, 0xA2u},
 531:Generated_Source\PSoC4/cyfitter_cfg.c **** 			{0x1Cu, 0x40u},
 532:Generated_Source\PSoC4/cyfitter_cfg.c **** 			{0x1Du, 0x54u},
 533:Generated_Source\PSoC4/cyfitter_cfg.c **** 			{0x20u, 0x08u},
 534:Generated_Source\PSoC4/cyfitter_cfg.c **** 			{0x21u, 0x4Au},
 535:Generated_Source\PSoC4/cyfitter_cfg.c **** 			{0x24u, 0x02u},
 536:Generated_Source\PSoC4/cyfitter_cfg.c **** 			{0x27u, 0x58u},
 537:Generated_Source\PSoC4/cyfitter_cfg.c **** 			{0x2Fu, 0x80u},
 538:Generated_Source\PSoC4/cyfitter_cfg.c **** 			{0x32u, 0x81u},
ARM GAS  C:\Users\VIKTOR~1\AppData\Local\Temp\ccAP2xJU.s 			page 16


 539:Generated_Source\PSoC4/cyfitter_cfg.c **** 			{0x36u, 0x10u},
 540:Generated_Source\PSoC4/cyfitter_cfg.c **** 			{0x37u, 0x40u},
 541:Generated_Source\PSoC4/cyfitter_cfg.c **** 			{0x38u, 0x80u},
 542:Generated_Source\PSoC4/cyfitter_cfg.c **** 			{0x39u, 0x14u},
 543:Generated_Source\PSoC4/cyfitter_cfg.c **** 			{0x3Eu, 0x02u},
 544:Generated_Source\PSoC4/cyfitter_cfg.c **** 			{0x58u, 0x02u},
 545:Generated_Source\PSoC4/cyfitter_cfg.c **** 			{0x59u, 0x50u},
 546:Generated_Source\PSoC4/cyfitter_cfg.c **** 			{0x5Bu, 0x04u},
 547:Generated_Source\PSoC4/cyfitter_cfg.c **** 			{0x5Cu, 0x40u},
 548:Generated_Source\PSoC4/cyfitter_cfg.c **** 			{0x5Du, 0x02u},
 549:Generated_Source\PSoC4/cyfitter_cfg.c **** 			{0x5Fu, 0x18u},
 550:Generated_Source\PSoC4/cyfitter_cfg.c **** 			{0x66u, 0x08u},
 551:Generated_Source\PSoC4/cyfitter_cfg.c **** 			{0x67u, 0x04u},
 552:Generated_Source\PSoC4/cyfitter_cfg.c **** 			{0x69u, 0x14u},
 553:Generated_Source\PSoC4/cyfitter_cfg.c **** 			{0x6Au, 0x42u},
 554:Generated_Source\PSoC4/cyfitter_cfg.c **** 			{0x7Cu, 0x04u},
 555:Generated_Source\PSoC4/cyfitter_cfg.c **** 			{0x80u, 0x40u},
 556:Generated_Source\PSoC4/cyfitter_cfg.c **** 			{0x84u, 0x04u},
 557:Generated_Source\PSoC4/cyfitter_cfg.c **** 			{0x85u, 0x80u},
 558:Generated_Source\PSoC4/cyfitter_cfg.c **** 			{0x88u, 0x80u},
 559:Generated_Source\PSoC4/cyfitter_cfg.c **** 			{0x89u, 0x08u},
 560:Generated_Source\PSoC4/cyfitter_cfg.c **** 			{0x8Bu, 0x10u},
 561:Generated_Source\PSoC4/cyfitter_cfg.c **** 			{0x8Eu, 0x80u},
 562:Generated_Source\PSoC4/cyfitter_cfg.c **** 			{0x90u, 0x04u},
 563:Generated_Source\PSoC4/cyfitter_cfg.c **** 			{0x92u, 0x24u},
 564:Generated_Source\PSoC4/cyfitter_cfg.c **** 			{0x93u, 0x04u},
 565:Generated_Source\PSoC4/cyfitter_cfg.c **** 			{0x95u, 0x80u},
 566:Generated_Source\PSoC4/cyfitter_cfg.c **** 			{0x98u, 0x02u},
 567:Generated_Source\PSoC4/cyfitter_cfg.c **** 			{0x9Au, 0x4Au},
 568:Generated_Source\PSoC4/cyfitter_cfg.c **** 			{0x9Bu, 0x04u},
 569:Generated_Source\PSoC4/cyfitter_cfg.c **** 			{0x9Du, 0x20u},
 570:Generated_Source\PSoC4/cyfitter_cfg.c **** 			{0x9Fu, 0x10u},
 571:Generated_Source\PSoC4/cyfitter_cfg.c **** 			{0xA0u, 0x80u},
 572:Generated_Source\PSoC4/cyfitter_cfg.c **** 			{0xA2u, 0x10u},
 573:Generated_Source\PSoC4/cyfitter_cfg.c **** 			{0xA3u, 0x80u},
 574:Generated_Source\PSoC4/cyfitter_cfg.c **** 			{0xA5u, 0x02u},
 575:Generated_Source\PSoC4/cyfitter_cfg.c **** 			{0xAAu, 0x10u},
 576:Generated_Source\PSoC4/cyfitter_cfg.c **** 			{0xB5u, 0x40u},
 577:Generated_Source\PSoC4/cyfitter_cfg.c **** 			{0xC0u, 0xBAu},
 578:Generated_Source\PSoC4/cyfitter_cfg.c **** 			{0xC2u, 0xCCu},
 579:Generated_Source\PSoC4/cyfitter_cfg.c **** 			{0xC4u, 0x18u},
 580:Generated_Source\PSoC4/cyfitter_cfg.c **** 			{0xCAu, 0x80u},
 581:Generated_Source\PSoC4/cyfitter_cfg.c **** 			{0xCCu, 0x39u},
 582:Generated_Source\PSoC4/cyfitter_cfg.c **** 			{0xCEu, 0x8Eu},
 583:Generated_Source\PSoC4/cyfitter_cfg.c **** 			{0xD6u, 0xFFu},
 584:Generated_Source\PSoC4/cyfitter_cfg.c **** 			{0xD8u, 0x60u},
 585:Generated_Source\PSoC4/cyfitter_cfg.c **** 			{0xDEu, 0x40u},
 586:Generated_Source\PSoC4/cyfitter_cfg.c **** 			{0xE0u, 0x08u},
 587:Generated_Source\PSoC4/cyfitter_cfg.c **** 			{0xE2u, 0x01u},
 588:Generated_Source\PSoC4/cyfitter_cfg.c **** 			{0xE4u, 0x02u},
 589:Generated_Source\PSoC4/cyfitter_cfg.c **** 			{0xEEu, 0x04u},
 590:Generated_Source\PSoC4/cyfitter_cfg.c **** 			{0x00u, 0x40u},
 591:Generated_Source\PSoC4/cyfitter_cfg.c **** 			{0x07u, 0x04u},
 592:Generated_Source\PSoC4/cyfitter_cfg.c **** 			{0x61u, 0x80u},
 593:Generated_Source\PSoC4/cyfitter_cfg.c **** 			{0x62u, 0x04u},
 594:Generated_Source\PSoC4/cyfitter_cfg.c **** 			{0x64u, 0x04u},
 595:Generated_Source\PSoC4/cyfitter_cfg.c **** 			{0x66u, 0x80u},
ARM GAS  C:\Users\VIKTOR~1\AppData\Local\Temp\ccAP2xJU.s 			page 17


 596:Generated_Source\PSoC4/cyfitter_cfg.c **** 			{0xC0u, 0x03u},
 597:Generated_Source\PSoC4/cyfitter_cfg.c **** 			{0xD6u, 0x03u},
 598:Generated_Source\PSoC4/cyfitter_cfg.c **** 			{0xD8u, 0x03u},
 599:Generated_Source\PSoC4/cyfitter_cfg.c **** 			{0x1Au, 0x20u},
 600:Generated_Source\PSoC4/cyfitter_cfg.c **** 			{0x83u, 0x04u},
 601:Generated_Source\PSoC4/cyfitter_cfg.c **** 			{0x84u, 0x04u},
 602:Generated_Source\PSoC4/cyfitter_cfg.c **** 			{0x85u, 0x80u},
 603:Generated_Source\PSoC4/cyfitter_cfg.c **** 			{0x8Au, 0x80u},
 604:Generated_Source\PSoC4/cyfitter_cfg.c **** 			{0x8Eu, 0x10u},
 605:Generated_Source\PSoC4/cyfitter_cfg.c **** 			{0x9Bu, 0x04u},
 606:Generated_Source\PSoC4/cyfitter_cfg.c **** 			{0x9Cu, 0x04u},
 607:Generated_Source\PSoC4/cyfitter_cfg.c **** 			{0x9Eu, 0x80u},
 608:Generated_Source\PSoC4/cyfitter_cfg.c **** 			{0xA5u, 0x80u},
 609:Generated_Source\PSoC4/cyfitter_cfg.c **** 			{0xA8u, 0x40u},
 610:Generated_Source\PSoC4/cyfitter_cfg.c **** 			{0xB6u, 0x04u},
 611:Generated_Source\PSoC4/cyfitter_cfg.c **** 			{0xC6u, 0x08u},
 612:Generated_Source\PSoC4/cyfitter_cfg.c **** 			{0xE2u, 0x02u},
 613:Generated_Source\PSoC4/cyfitter_cfg.c **** 			{0xE4u, 0x04u},
 614:Generated_Source\PSoC4/cyfitter_cfg.c **** 			{0xECu, 0x08u},
 615:Generated_Source\PSoC4/cyfitter_cfg.c **** 			{0x01u, 0x01u},
 616:Generated_Source\PSoC4/cyfitter_cfg.c **** 			{0x10u, 0x01u},
 617:Generated_Source\PSoC4/cyfitter_cfg.c **** 		};
 618:Generated_Source\PSoC4/cyfitter_cfg.c **** 
 619:Generated_Source\PSoC4/cyfitter_cfg.c **** 
 620:Generated_Source\PSoC4/cyfitter_cfg.c **** 
 621:Generated_Source\PSoC4/cyfitter_cfg.c **** 		CYPACKED typedef struct {
 622:Generated_Source\PSoC4/cyfitter_cfg.c **** 			void CYFAR *address;
 623:Generated_Source\PSoC4/cyfitter_cfg.c **** 			uint16 size;
 624:Generated_Source\PSoC4/cyfitter_cfg.c **** 		} CYPACKED_ATTR cfg_memset_t;
 625:Generated_Source\PSoC4/cyfitter_cfg.c **** 
 626:Generated_Source\PSoC4/cyfitter_cfg.c **** 		static const cfg_memset_t CYCODE cfg_memset_list[] = {
 627:Generated_Source\PSoC4/cyfitter_cfg.c **** 			/* address, size */
 628:Generated_Source\PSoC4/cyfitter_cfg.c **** 			{(void CYFAR *)(CYDEV_UDB_P0_U0_BASE), 1024u},
 629:Generated_Source\PSoC4/cyfitter_cfg.c **** 			{(void CYFAR *)(CYDEV_UDB_DSI0_BASE), 1024u},
 630:Generated_Source\PSoC4/cyfitter_cfg.c **** 		};
 631:Generated_Source\PSoC4/cyfitter_cfg.c **** 
 632:Generated_Source\PSoC4/cyfitter_cfg.c **** 		uint8 CYDATA i;
 633:Generated_Source\PSoC4/cyfitter_cfg.c **** 
 634:Generated_Source\PSoC4/cyfitter_cfg.c **** 		/* Zero out critical memory blocks before beginning configuration */
 635:Generated_Source\PSoC4/cyfitter_cfg.c **** 		for (i = 0u; i < (sizeof(cfg_memset_list)/sizeof(cfg_memset_list[0])); i++)
 293              		.loc 1 635 0
 294 00b4 0024     		movs	r4, #0
 295 00b6 0FE0     		b	.L14
 296              	.LVL19:
 297              	.L15:
 298              	.LBB4:
 636:Generated_Source\PSoC4/cyfitter_cfg.c **** 		{
 637:Generated_Source\PSoC4/cyfitter_cfg.c **** 			const cfg_memset_t CYCODE * CYDATA ms = &cfg_memset_list[i];
 638:Generated_Source\PSoC4/cyfitter_cfg.c **** 			CYMEMZERO(ms->address, (size_t)(uint32)(ms->size));
 299              		.loc 1 638 0 discriminator 3
 300 00b8 2E48     		ldr	r0, .L16
 301 00ba 6200     		lsls	r2, r4, #1
 302 00bc 1319     		adds	r3, r2, r4
 303 00be 5900     		lsls	r1, r3, #1
 304 00c0 0B00     		movs	r3, r1
 305 00c2 4118     		adds	r1, r0, r1
 306 00c4 8988     		ldrh	r1, [r1, #4]
ARM GAS  C:\Users\VIKTOR~1\AppData\Local\Temp\ccAP2xJU.s 			page 18


 307 00c6 1A5A     		ldrh	r2, [r3, r0]
 308 00c8 C318     		adds	r3, r0, r3
 309 00ca 5888     		ldrh	r0, [r3, #2]
 310 00cc 0004     		lsls	r0, r0, #16
 311 00ce 1043     		orrs	r0, r2
 312 00d0 FFF7FEFF 		bl	CYMEMZERO
 313              	.LVL20:
 314              	.LBE4:
 635:Generated_Source\PSoC4/cyfitter_cfg.c **** 		{
 315              		.loc 1 635 0 discriminator 3
 316 00d4 0134     		adds	r4, r4, #1
 317              	.LVL21:
 318 00d6 E4B2     		uxtb	r4, r4
 319              	.LVL22:
 320              	.L14:
 635:Generated_Source\PSoC4/cyfitter_cfg.c **** 		{
 321              		.loc 1 635 0 is_stmt 0 discriminator 1
 322 00d8 012C     		cmp	r4, #1
 323 00da EDD9     		bls	.L15
 639:Generated_Source\PSoC4/cyfitter_cfg.c **** 		}
 640:Generated_Source\PSoC4/cyfitter_cfg.c **** 
 641:Generated_Source\PSoC4/cyfitter_cfg.c **** 		cfg_write_bytes32(cy_cfg_addr_table, cy_cfg_data_table);
 324              		.loc 1 641 0 is_stmt 1
 325 00dc 2549     		ldr	r1, .L16
 326 00de 0C31     		adds	r1, r1, #12
 327 00e0 2548     		ldr	r0, .L16+4
 328 00e2 6830     		adds	r0, r0, #104
 329 00e4 FFF7FEFF 		bl	cfg_write_bytes32
 330              	.LVL23:
 642:Generated_Source\PSoC4/cyfitter_cfg.c **** 
 643:Generated_Source\PSoC4/cyfitter_cfg.c **** 		/* HSIOM Starting address: CYDEV_HSIOM_BASE */
 644:Generated_Source\PSoC4/cyfitter_cfg.c **** 		CY_SET_REG32((void *)(CYREG_HSIOM_PORT_SEL2), 0x33330000u);
 331              		.loc 1 644 0
 332 00e8 244A     		ldr	r2, .L16+8
 333 00ea 254B     		ldr	r3, .L16+12
 334 00ec 1A60     		str	r2, [r3]
 645:Generated_Source\PSoC4/cyfitter_cfg.c **** 		CY_SET_REG32((void *)(CYREG_HSIOM_PORT_SEL3), 0x0000EE00u);
 335              		.loc 1 645 0
 336 00ee EE22     		movs	r2, #238
 337 00f0 1202     		lsls	r2, r2, #8
 338 00f2 244B     		ldr	r3, .L16+16
 339 00f4 1A60     		str	r2, [r3]
 646:Generated_Source\PSoC4/cyfitter_cfg.c **** 
 647:Generated_Source\PSoC4/cyfitter_cfg.c **** 		/* UDB_PA_0 Starting address: CYDEV_UDB_PA0_BASE */
 648:Generated_Source\PSoC4/cyfitter_cfg.c **** 		CY_SET_REG32((void *)(CYDEV_UDB_PA0_BASE), 0x00990000u);
 340              		.loc 1 648 0
 341 00f6 9923     		movs	r3, #153
 342 00f8 1B04     		lsls	r3, r3, #16
 343 00fa 234A     		ldr	r2, .L16+20
 344 00fc 1360     		str	r3, [r2]
 649:Generated_Source\PSoC4/cyfitter_cfg.c **** 
 650:Generated_Source\PSoC4/cyfitter_cfg.c **** 		/* UDB_PA_1 Starting address: CYDEV_UDB_PA1_BASE */
 651:Generated_Source\PSoC4/cyfitter_cfg.c **** 		CY_SET_REG32((void *)(CYDEV_UDB_PA1_BASE), 0x00990000u);
 345              		.loc 1 651 0
 346 00fe 234A     		ldr	r2, .L16+24
 347 0100 1360     		str	r3, [r2]
 652:Generated_Source\PSoC4/cyfitter_cfg.c **** 
ARM GAS  C:\Users\VIKTOR~1\AppData\Local\Temp\ccAP2xJU.s 			page 19


 653:Generated_Source\PSoC4/cyfitter_cfg.c **** 		/* UDB_PA_2 Starting address: CYDEV_UDB_PA2_BASE */
 654:Generated_Source\PSoC4/cyfitter_cfg.c **** 		CY_SET_REG32((void *)(CYDEV_UDB_PA2_BASE), 0x00990000u);
 348              		.loc 1 654 0
 349 0102 234A     		ldr	r2, .L16+28
 350 0104 1360     		str	r3, [r2]
 655:Generated_Source\PSoC4/cyfitter_cfg.c **** 		CY_SET_REG32((void *)(CYREG_UDB_PA2_CFG8), 0x87000000u);
 351              		.loc 1 655 0
 352 0106 8721     		movs	r1, #135
 353 0108 0906     		lsls	r1, r1, #24
 354 010a 224A     		ldr	r2, .L16+32
 355 010c 1160     		str	r1, [r2]
 656:Generated_Source\PSoC4/cyfitter_cfg.c **** 
 657:Generated_Source\PSoC4/cyfitter_cfg.c **** 		/* UDB_PA_3 Starting address: CYDEV_UDB_PA3_BASE */
 658:Generated_Source\PSoC4/cyfitter_cfg.c **** 		CY_SET_REG32((void *)(CYDEV_UDB_PA3_BASE), 0x00990000u);
 356              		.loc 1 658 0
 357 010e 224A     		ldr	r2, .L16+36
 358 0110 1360     		str	r3, [r2]
 659:Generated_Source\PSoC4/cyfitter_cfg.c **** 
 660:Generated_Source\PSoC4/cyfitter_cfg.c **** 		/* UDB_P1_U0_CFG24 Starting address: CYDEV_UDB_P1_U0_CFG24 */
 661:Generated_Source\PSoC4/cyfitter_cfg.c **** 		CY_SET_REG32((void *)(CYREG_UDB_P1_U0_CFG24), 0x84000404u);
 359              		.loc 1 661 0
 360 0112 224A     		ldr	r2, .L16+40
 361 0114 224B     		ldr	r3, .L16+44
 362 0116 1A60     		str	r2, [r3]
 662:Generated_Source\PSoC4/cyfitter_cfg.c **** 
 663:Generated_Source\PSoC4/cyfitter_cfg.c **** 		/* Enable UDB array and digital routing */
 664:Generated_Source\PSoC4/cyfitter_cfg.c **** 		CY_SET_XTND_REG8((void *)CYREG_UDB_UDBIF_WAIT_CFG, (uint8)((CY_GET_XTND_REG8((void *)CYREG_UDB_UD
 363              		.loc 1 664 0
 364 0118 2249     		ldr	r1, .L16+48
 365 011a 0B78     		ldrb	r3, [r1]
 366 011c 3C22     		movs	r2, #60
 367 011e 9343     		bics	r3, r2
 368 0120 1422     		movs	r2, #20
 369 0122 1343     		orrs	r3, r2
 370 0124 DBB2     		uxtb	r3, r3
 371 0126 0B70     		strb	r3, [r1]
 665:Generated_Source\PSoC4/cyfitter_cfg.c **** 		CY_SET_XTND_REG8((void *)CYREG_UDB_UDBIF_BANK_CTL, (uint8)(CY_GET_XTND_REG8((void *)CYREG_UDB_UDB
 372              		.loc 1 665 0
 373 0128 1F4A     		ldr	r2, .L16+52
 374 012a 1178     		ldrb	r1, [r2]
 375 012c 1623     		movs	r3, #22
 376 012e 0B43     		orrs	r3, r1
 377 0130 DBB2     		uxtb	r3, r3
 378 0132 1370     		strb	r3, [r2]
 379              	.LBE3:
 666:Generated_Source\PSoC4/cyfitter_cfg.c **** 	}
 667:Generated_Source\PSoC4/cyfitter_cfg.c **** 
 668:Generated_Source\PSoC4/cyfitter_cfg.c **** 	/* Perform second pass device configuration. These items must be configured in specific order afte
 669:Generated_Source\PSoC4/cyfitter_cfg.c **** 	/* IOPINS0_0 Starting address: CYDEV_GPIO_PRT0_BASE */
 670:Generated_Source\PSoC4/cyfitter_cfg.c **** 	CY_SET_REG32((void *)(CYREG_GPIO_PRT0_PC), 0x001B6DB6u);
 380              		.loc 1 670 0
 381 0134 1D4A     		ldr	r2, .L16+56
 382 0136 1E4B     		ldr	r3, .L16+60
 383 0138 1A60     		str	r2, [r3]
 671:Generated_Source\PSoC4/cyfitter_cfg.c **** 
 672:Generated_Source\PSoC4/cyfitter_cfg.c **** 	/* IOPINS0_1 Starting address: CYDEV_GPIO_PRT1_BASE */
 673:Generated_Source\PSoC4/cyfitter_cfg.c **** 	CY_SET_REG32((void *)(CYDEV_GPIO_PRT1_BASE), 0x00000001u);
ARM GAS  C:\Users\VIKTOR~1\AppData\Local\Temp\ccAP2xJU.s 			page 20


 384              		.loc 1 673 0
 385 013a 0122     		movs	r2, #1
 386 013c 1D4B     		ldr	r3, .L16+64
 387 013e 1A60     		str	r2, [r3]
 674:Generated_Source\PSoC4/cyfitter_cfg.c **** 	CY_SET_REG32((void *)(CYREG_GPIO_PRT1_PC), 0x00000002u);
 388              		.loc 1 674 0
 389 0140 0223     		movs	r3, #2
 390 0142 1D49     		ldr	r1, .L16+68
 391 0144 0B60     		str	r3, [r1]
 675:Generated_Source\PSoC4/cyfitter_cfg.c **** 	CY_SET_REG32((void *)(CYREG_GPIO_PRT1_INTR_CFG), 0x00000002u);
 392              		.loc 1 675 0
 393 0146 1D49     		ldr	r1, .L16+72
 394 0148 0B60     		str	r3, [r1]
 676:Generated_Source\PSoC4/cyfitter_cfg.c **** 
 677:Generated_Source\PSoC4/cyfitter_cfg.c **** 	/* IOPINS0_2 Starting address: CYDEV_GPIO_PRT2_BASE */
 678:Generated_Source\PSoC4/cyfitter_cfg.c **** 	CY_SET_REG32((void *)(CYDEV_GPIO_PRT2_BASE), 0x000000F2u);
 395              		.loc 1 678 0
 396 014a F220     		movs	r0, #242
 397 014c 1C49     		ldr	r1, .L16+76
 398 014e 0860     		str	r0, [r1]
 679:Generated_Source\PSoC4/cyfitter_cfg.c **** 	CY_SET_REG32((void *)(CYREG_GPIO_PRT2_PC), 0x00DB66D0u);
 399              		.loc 1 679 0
 400 0150 1C48     		ldr	r0, .L16+80
 401 0152 1D49     		ldr	r1, .L16+84
 402 0154 0860     		str	r0, [r1]
 680:Generated_Source\PSoC4/cyfitter_cfg.c **** 	CY_SET_REG32((void *)(CYREG_GPIO_PRT2_INTR_CFG), 0x00000008u);
 403              		.loc 1 680 0
 404 0156 0820     		movs	r0, #8
 405 0158 1C49     		ldr	r1, .L16+88
 406 015a 0860     		str	r0, [r1]
 681:Generated_Source\PSoC4/cyfitter_cfg.c **** 
 682:Generated_Source\PSoC4/cyfitter_cfg.c **** 	/* IOPINS0_3 Starting address: CYDEV_GPIO_PRT3_BASE */
 683:Generated_Source\PSoC4/cyfitter_cfg.c **** 	CY_SET_REG32((void *)(CYDEV_GPIO_PRT3_BASE), 0x00000001u);
 407              		.loc 1 683 0
 408 015c 1C49     		ldr	r1, .L16+92
 409 015e 0A60     		str	r2, [r1]
 684:Generated_Source\PSoC4/cyfitter_cfg.c **** 	CY_SET_REG32((void *)(CYREG_GPIO_PRT3_PC), 0x00000D82u);
 410              		.loc 1 684 0
 411 0160 1C49     		ldr	r1, .L16+96
 412 0162 1D4A     		ldr	r2, .L16+100
 413 0164 1160     		str	r1, [r2]
 685:Generated_Source\PSoC4/cyfitter_cfg.c **** 	CY_SET_REG32((void *)(CYREG_GPIO_PRT3_INTR_CFG), 0x00000002u);
 414              		.loc 1 685 0
 415 0166 1D4A     		ldr	r2, .L16+104
 416 0168 1360     		str	r3, [r2]
 686:Generated_Source\PSoC4/cyfitter_cfg.c **** 
 687:Generated_Source\PSoC4/cyfitter_cfg.c **** 
 688:Generated_Source\PSoC4/cyfitter_cfg.c **** 	/* Setup clocks based on selections from Clock DWR */
 689:Generated_Source\PSoC4/cyfitter_cfg.c **** 	ClockSetup();
 417              		.loc 1 689 0
 418 016a FFF749FF 		bl	ClockSetup
 419              	.LVL24:
 690:Generated_Source\PSoC4/cyfitter_cfg.c **** 
 691:Generated_Source\PSoC4/cyfitter_cfg.c **** 	/* Perform basic analog initialization to defaults */
 692:Generated_Source\PSoC4/cyfitter_cfg.c **** 	AnalogSetDefault();
 420              		.loc 1 692 0
 421 016e FFF7FEFF 		bl	AnalogSetDefault
ARM GAS  C:\Users\VIKTOR~1\AppData\Local\Temp\ccAP2xJU.s 			page 21


 422              	.LVL25:
 693:Generated_Source\PSoC4/cyfitter_cfg.c **** 
 694:Generated_Source\PSoC4/cyfitter_cfg.c **** }
 423              		.loc 1 694 0
 424              		@ sp needed
 425              	.LVL26:
 426 0172 10BD     		pop	{r4, pc}
 427              	.L17:
 428              		.align	2
 429              	.L16:
 430 0174 00000000 		.word	.LANCHOR0
 431 0178 00020000 		.word	.LANCHOR1
 432 017c 00003333 		.word	858980352
 433 0180 00020240 		.word	1073873408
 434 0184 00030240 		.word	1073873664
 435 0188 00500F40 		.word	1074745344
 436 018c 10500F40 		.word	1074745360
 437 0190 20500F40 		.word	1074745376
 438 0194 28500F40 		.word	1074745384
 439 0198 30500F40 		.word	1074745392
 440 019c 04040084 		.word	-2080373756
 441 01a0 58320F40 		.word	1074737752
 442 01a4 01700F40 		.word	1074753537
 443 01a8 00700F40 		.word	1074753536
 444 01ac B66D1B00 		.word	1797558
 445 01b0 08000440 		.word	1074003976
 446 01b4 00010440 		.word	1074004224
 447 01b8 08010440 		.word	1074004232
 448 01bc 0C010440 		.word	1074004236
 449 01c0 00020440 		.word	1074004480
 450 01c4 D066DB00 		.word	14378704
 451 01c8 08020440 		.word	1074004488
 452 01cc 0C020440 		.word	1074004492
 453 01d0 00030440 		.word	1074004736
 454 01d4 820D0000 		.word	3458
 455 01d8 08030440 		.word	1074004744
 456 01dc 0C030440 		.word	1074004748
 457              		.cfi_endproc
 458              	.LFE7:
 459              		.size	cyfitter_cfg, .-cyfitter_cfg
 460              		.section	.rodata
 461              		.align	2
 462              		.set	.LANCHOR0,. + 0
 463              		.set	.LANCHOR1,. + 512
 464              		.type	cfg_memset_list.4911, %object
 465              		.size	cfg_memset_list.4911, 12
 466              	cfg_memset_list.4911:
 467 0000 00300F40 		.word	1074737152
 468 0004 0004     		.short	1024
 469 0006 00400F40 		.4byte	1074741248
 470 000a 0004     		.short	1024
 471              		.type	cy_cfg_data_table.4906, %object
 472              		.size	cy_cfg_data_table.4906, 604
 473              	cy_cfg_data_table.4906:
 474 000c 82       		.byte	-126
 475 000d 6F       		.byte	111
 476 000e 83       		.byte	-125
ARM GAS  C:\Users\VIKTOR~1\AppData\Local\Temp\ccAP2xJU.s 			page 22


 477 000f 0F       		.byte	15
 478 0010 01       		.byte	1
 479 0011 9E       		.byte	-98
 480 0012 03       		.byte	3
 481 0013 60       		.byte	96
 482 0014 05       		.byte	5
 483 0015 73       		.byte	115
 484 0016 06       		.byte	6
 485 0017 70       		.byte	112
 486 0018 09       		.byte	9
 487 0019 CF       		.byte	-49
 488 001a 0B       		.byte	11
 489 001b 30       		.byte	48
 490 001c 0C       		.byte	12
 491 001d 1C       		.byte	28
 492 001e 0E       		.byte	14
 493 001f 22       		.byte	34
 494 0020 10       		.byte	16
 495 0021 7B       		.byte	123
 496 0022 11       		.byte	17
 497 0023 30       		.byte	48
 498 0024 12       		.byte	18
 499 0025 04       		.byte	4
 500 0026 13       		.byte	19
 501 0027 C9       		.byte	-55
 502 0028 14       		.byte	20
 503 0029 0C       		.byte	12
 504 002a 16       		.byte	22
 505 002b 41       		.byte	65
 506 002c 17       		.byte	23
 507 002d 0F       		.byte	15
 508 002e 22       		.byte	34
 509 002f 80       		.byte	-128
 510 0030 24       		.byte	36
 511 0031 77       		.byte	119
 512 0032 28       		.byte	40
 513 0033 18       		.byte	24
 514 0034 29       		.byte	41
 515 0035 94       		.byte	-108
 516 0036 2A       		.byte	42
 517 0037 21       		.byte	33
 518 0038 2B       		.byte	43
 519 0039 60       		.byte	96
 520 003a 2C       		.byte	44
 521 003b 40       		.byte	64
 522 003c 2D       		.byte	45
 523 003d FD       		.byte	-3
 524 003e 2E       		.byte	46
 525 003f 0F       		.byte	15
 526 0040 2F       		.byte	47
 527 0041 02       		.byte	2
 528 0042 34       		.byte	52
 529 0043 F0       		.byte	-16
 530 0044 36       		.byte	54
 531 0045 0F       		.byte	15
 532 0046 37       		.byte	55
 533 0047 FF       		.byte	-1
ARM GAS  C:\Users\VIKTOR~1\AppData\Local\Temp\ccAP2xJU.s 			page 23


 534 0048 3F       		.byte	63
 535 0049 40       		.byte	64
 536 004a 58       		.byte	88
 537 004b 04       		.byte	4
 538 004c 59       		.byte	89
 539 004d 04       		.byte	4
 540 004e 5F       		.byte	95
 541 004f 01       		.byte	1
 542 0050 80       		.byte	-128
 543 0051 5A       		.byte	90
 544 0052 81       		.byte	-127
 545 0053 80       		.byte	-128
 546 0054 82       		.byte	-126
 547 0055 25       		.byte	37
 548 0056 84       		.byte	-124
 549 0057 80       		.byte	-128
 550 0058 85       		.byte	-123
 551 0059 6C       		.byte	108
 552 005a 87       		.byte	-121
 553 005b 02       		.byte	2
 554 005c 88       		.byte	-120
 555 005d 37       		.byte	55
 556 005e 8C       		.byte	-116
 557 005f 6F       		.byte	111
 558 0060 8D       		.byte	-115
 559 0061 80       		.byte	-128
 560 0062 8E       		.byte	-114
 561 0063 10       		.byte	16
 562 0064 90       		.byte	-112
 563 0065 25       		.byte	37
 564 0066 91       		.byte	-111
 565 0067 08       		.byte	8
 566 0068 92       		.byte	-110
 567 0069 4A       		.byte	74
 568 006a 93       		.byte	-109
 569 006b 01       		.byte	1
 570 006c 95       		.byte	-107
 571 006d B7       		.byte	-73
 572 006e 96       		.byte	-106
 573 006f 90       		.byte	-112
 574 0070 98       		.byte	-104
 575 0071 7C       		.byte	124
 576 0072 9A       		.byte	-102
 577 0073 03       		.byte	3
 578 0074 9D       		.byte	-99
 579 0075 6C       		.byte	108
 580 0076 9F       		.byte	-97
 581 0077 01       		.byte	1
 582 0078 A1       		.byte	-95
 583 0079 5B       		.byte	91
 584 007a A2       		.byte	-94
 585 007b 80       		.byte	-128
 586 007c A3       		.byte	-93
 587 007d 04       		.byte	4
 588 007e A4       		.byte	-92
 589 007f 63       		.byte	99
 590 0080 A6       		.byte	-90
ARM GAS  C:\Users\VIKTOR~1\AppData\Local\Temp\ccAP2xJU.s 			page 24


 591 0081 0C       		.byte	12
 592 0082 AB       		.byte	-85
 593 0083 0F       		.byte	15
 594 0084 B1       		.byte	-79
 595 0085 80       		.byte	-128
 596 0086 B2       		.byte	-78
 597 0087 70       		.byte	112
 598 0088 B3       		.byte	-77
 599 0089 0F       		.byte	15
 600 008a B4       		.byte	-76
 601 008b 80       		.byte	-128
 602 008c B5       		.byte	-75
 603 008d 70       		.byte	112
 604 008e B6       		.byte	-74
 605 008f 0F       		.byte	15
 606 0090 B9       		.byte	-71
 607 0091 22       		.byte	34
 608 0092 BE       		.byte	-66
 609 0093 10       		.byte	16
 610 0094 BF       		.byte	-65
 611 0095 01       		.byte	1
 612 0096 C0       		.byte	-64
 613 0097 21       		.byte	33
 614 0098 C1       		.byte	-63
 615 0099 06       		.byte	6
 616 009a C5       		.byte	-59
 617 009b 2C       		.byte	44
 618 009c C6       		.byte	-58
 619 009d 03       		.byte	3
 620 009e C7       		.byte	-57
 621 009f 4E       		.byte	78
 622 00a0 C8       		.byte	-56
 623 00a1 37       		.byte	55
 624 00a2 C9       		.byte	-55
 625 00a3 FF       		.byte	-1
 626 00a4 CA       		.byte	-54
 627 00a5 FF       		.byte	-1
 628 00a6 CB       		.byte	-53
 629 00a7 FF       		.byte	-1
 630 00a8 CD       		.byte	-51
 631 00a9 A0       		.byte	-96
 632 00aa CF       		.byte	-49
 633 00ab 01       		.byte	1
 634 00ac D0       		.byte	-48
 635 00ad 18       		.byte	24
 636 00ae D2       		.byte	-46
 637 00af 80       		.byte	-128
 638 00b0 D8       		.byte	-40
 639 00b1 04       		.byte	4
 640 00b2 D9       		.byte	-39
 641 00b3 04       		.byte	4
 642 00b4 DA       		.byte	-38
 643 00b5 04       		.byte	4
 644 00b6 DB       		.byte	-37
 645 00b7 04       		.byte	4
 646 00b8 DF       		.byte	-33
 647 00b9 01       		.byte	1
ARM GAS  C:\Users\VIKTOR~1\AppData\Local\Temp\ccAP2xJU.s 			page 25


 648 00ba E0       		.byte	-32
 649 00bb 40       		.byte	64
 650 00bc E2       		.byte	-30
 651 00bd 80       		.byte	-128
 652 00be E4       		.byte	-28
 653 00bf 40       		.byte	64
 654 00c0 E5       		.byte	-27
 655 00c1 40       		.byte	64
 656 00c2 E6       		.byte	-26
 657 00c3 80       		.byte	-128
 658 00c4 E8       		.byte	-24
 659 00c5 40       		.byte	64
 660 00c6 EA       		.byte	-22
 661 00c7 80       		.byte	-128
 662 00c8 EC       		.byte	-20
 663 00c9 40       		.byte	64
 664 00ca ED       		.byte	-19
 665 00cb 20       		.byte	32
 666 00cc EE       		.byte	-18
 667 00cd 80       		.byte	-128
 668 00ce 01       		.byte	1
 669 00cf 80       		.byte	-128
 670 00d0 03       		.byte	3
 671 00d1 20       		.byte	32
 672 00d2 04       		.byte	4
 673 00d3 02       		.byte	2
 674 00d4 05       		.byte	5
 675 00d5 40       		.byte	64
 676 00d6 07       		.byte	7
 677 00d7 18       		.byte	24
 678 00d8 09       		.byte	9
 679 00d9 04       		.byte	4
 680 00da 0B       		.byte	11
 681 00db 80       		.byte	-128
 682 00dc 0C       		.byte	12
 683 00dd 02       		.byte	2
 684 00de 0D       		.byte	13
 685 00df 02       		.byte	2
 686 00e0 0E       		.byte	14
 687 00e1 28       		.byte	40
 688 00e2 10       		.byte	16
 689 00e3 06       		.byte	6
 690 00e4 12       		.byte	18
 691 00e5 80       		.byte	-128
 692 00e6 13       		.byte	19
 693 00e7 08       		.byte	8
 694 00e8 16       		.byte	22
 695 00e9 A0       		.byte	-96
 696 00ea 18       		.byte	24
 697 00eb 02       		.byte	2
 698 00ec 19       		.byte	25
 699 00ed 80       		.byte	-128
 700 00ee 1A       		.byte	26
 701 00ef 0C       		.byte	12
 702 00f0 1B       		.byte	27
 703 00f1 20       		.byte	32
 704 00f2 1D       		.byte	29
ARM GAS  C:\Users\VIKTOR~1\AppData\Local\Temp\ccAP2xJU.s 			page 26


 705 00f3 60       		.byte	96
 706 00f4 1E       		.byte	30
 707 00f5 20       		.byte	32
 708 00f6 1F       		.byte	31
 709 00f7 40       		.byte	64
 710 00f8 22       		.byte	34
 711 00f9 80       		.byte	-128
 712 00fa 24       		.byte	36
 713 00fb 24       		.byte	36
 714 00fc 25       		.byte	37
 715 00fd 04       		.byte	4
 716 00fe 26       		.byte	38
 717 00ff 04       		.byte	4
 718 0100 27       		.byte	39
 719 0101 4C       		.byte	76
 720 0102 28       		.byte	40
 721 0103 06       		.byte	6
 722 0104 29       		.byte	41
 723 0105 60       		.byte	96
 724 0106 2A       		.byte	42
 725 0107 20       		.byte	32
 726 0108 2D       		.byte	45
 727 0109 20       		.byte	32
 728 010a 2F       		.byte	47
 729 010b 40       		.byte	64
 730 010c 31       		.byte	49
 731 010d 02       		.byte	2
 732 010e 32       		.byte	50
 733 010f 04       		.byte	4
 734 0110 33       		.byte	51
 735 0111 01       		.byte	1
 736 0112 35       		.byte	53
 737 0113 80       		.byte	-128
 738 0114 37       		.byte	55
 739 0115 09       		.byte	9
 740 0116 38       		.byte	56
 741 0117 26       		.byte	38
 742 0118 3D       		.byte	61
 743 0119 08       		.byte	8
 744 011a 3F       		.byte	63
 745 011b 82       		.byte	-126
 746 011c 45       		.byte	69
 747 011d 20       		.byte	32
 748 011e 47       		.byte	71
 749 011f 40       		.byte	64
 750 0120 4C       		.byte	76
 751 0121 80       		.byte	-128
 752 0122 4E       		.byte	78
 753 0123 04       		.byte	4
 754 0124 4F       		.byte	79
 755 0125 06       		.byte	6
 756 0126 56       		.byte	86
 757 0127 4A       		.byte	74
 758 0128 57       		.byte	87
 759 0129 C0       		.byte	-64
 760 012a 76       		.byte	118
 761 012b 80       		.byte	-128
ARM GAS  C:\Users\VIKTOR~1\AppData\Local\Temp\ccAP2xJU.s 			page 27


 762 012c C0       		.byte	-64
 763 012d F5       		.byte	-11
 764 012e C2       		.byte	-62
 765 012f 7C       		.byte	124
 766 0130 C4       		.byte	-60
 767 0131 3F       		.byte	63
 768 0132 CA       		.byte	-54
 769 0133 AC       		.byte	-84
 770 0134 CC       		.byte	-52
 771 0135 D3       		.byte	-45
 772 0136 CE       		.byte	-50
 773 0137 D7       		.byte	-41
 774 0138 D0       		.byte	-48
 775 0139 30       		.byte	48
 776 013a D2       		.byte	-46
 777 013b 20       		.byte	32
 778 013c 00       		.byte	0
 779 013d 07       		.byte	7
 780 013e 03       		.byte	3
 781 013f 01       		.byte	1
 782 0140 06       		.byte	6
 783 0141 06       		.byte	6
 784 0142 0E       		.byte	14
 785 0143 01       		.byte	1
 786 0144 18       		.byte	24
 787 0145 04       		.byte	4
 788 0146 1A       		.byte	26
 789 0147 02       		.byte	2
 790 0148 1B       		.byte	27
 791 0149 08       		.byte	8
 792 014a 1C       		.byte	28
 793 014b 08       		.byte	8
 794 014c 1D       		.byte	29
 795 014d 04       		.byte	4
 796 014e 20       		.byte	32
 797 014f 08       		.byte	8
 798 0150 23       		.byte	35
 799 0151 06       		.byte	6
 800 0152 30       		.byte	48
 801 0153 01       		.byte	1
 802 0154 31       		.byte	49
 803 0155 02       		.byte	2
 804 0156 32       		.byte	50
 805 0157 08       		.byte	8
 806 0158 33       		.byte	51
 807 0159 08       		.byte	8
 808 015a 34       		.byte	52
 809 015b 04       		.byte	4
 810 015c 35       		.byte	53
 811 015d 04       		.byte	4
 812 015e 36       		.byte	54
 813 015f 02       		.byte	2
 814 0160 37       		.byte	55
 815 0161 01       		.byte	1
 816 0162 38       		.byte	56
 817 0163 08       		.byte	8
 818 0164 3E       		.byte	62
ARM GAS  C:\Users\VIKTOR~1\AppData\Local\Temp\ccAP2xJU.s 			page 28


 819 0165 51       		.byte	81
 820 0166 3F       		.byte	63
 821 0167 10       		.byte	16
 822 0168 54       		.byte	84
 823 0169 0F       		.byte	15
 824 016a 58       		.byte	88
 825 016b 04       		.byte	4
 826 016c 59       		.byte	89
 827 016d 04       		.byte	4
 828 016e 5B       		.byte	91
 829 016f 04       		.byte	4
 830 0170 5F       		.byte	95
 831 0171 05       		.byte	5
 832 0172 82       		.byte	-126
 833 0173 04       		.byte	4
 834 0174 87       		.byte	-121
 835 0175 08       		.byte	8
 836 0176 88       		.byte	-120
 837 0177 02       		.byte	2
 838 0178 8B       		.byte	-117
 839 0179 01       		.byte	1
 840 017a 8F       		.byte	-113
 841 017b 04       		.byte	4
 842 017c 92       		.byte	-110
 843 017d 04       		.byte	4
 844 017e 93       		.byte	-109
 845 017f 02       		.byte	2
 846 0180 96       		.byte	-106
 847 0181 08       		.byte	8
 848 0182 9F       		.byte	-97
 849 0183 0B       		.byte	11
 850 0184 A2       		.byte	-94
 851 0185 03       		.byte	3
 852 0186 B0       		.byte	-80
 853 0187 02       		.byte	2
 854 0188 B1       		.byte	-79
 855 0189 04       		.byte	4
 856 018a B2       		.byte	-78
 857 018b 01       		.byte	1
 858 018c B3       		.byte	-77
 859 018d 01       		.byte	1
 860 018e B4       		.byte	-76
 861 018f 08       		.byte	8
 862 0190 B5       		.byte	-75
 863 0191 08       		.byte	8
 864 0192 B6       		.byte	-74
 865 0193 04       		.byte	4
 866 0194 B7       		.byte	-73
 867 0195 02       		.byte	2
 868 0196 BE       		.byte	-66
 869 0197 41       		.byte	65
 870 0198 BF       		.byte	-65
 871 0199 54       		.byte	84
 872 019a D4       		.byte	-44
 873 019b 0F       		.byte	15
 874 019c D8       		.byte	-40
 875 019d 04       		.byte	4
ARM GAS  C:\Users\VIKTOR~1\AppData\Local\Temp\ccAP2xJU.s 			page 29


 876 019e D9       		.byte	-39
 877 019f 04       		.byte	4
 878 01a0 DB       		.byte	-37
 879 01a1 04       		.byte	4
 880 01a2 DF       		.byte	-33
 881 01a3 01       		.byte	1
 882 01a4 00       		.byte	0
 883 01a5 10       		.byte	16
 884 01a6 02       		.byte	2
 885 01a7 80       		.byte	-128
 886 01a8 04       		.byte	4
 887 01a9 02       		.byte	2
 888 01aa 05       		.byte	5
 889 01ab 04       		.byte	4
 890 01ac 06       		.byte	6
 891 01ad 02       		.byte	2
 892 01ae 0A       		.byte	10
 893 01af 60       		.byte	96
 894 01b0 0C       		.byte	12
 895 01b1 80       		.byte	-128
 896 01b2 0E       		.byte	14
 897 01b3 04       		.byte	4
 898 01b4 10       		.byte	16
 899 01b5 80       		.byte	-128
 900 01b6 16       		.byte	22
 901 01b7 40       		.byte	64
 902 01b8 18       		.byte	24
 903 01b9 10       		.byte	16
 904 01ba 19       		.byte	25
 905 01bb A2       		.byte	-94
 906 01bc 1C       		.byte	28
 907 01bd 40       		.byte	64
 908 01be 1D       		.byte	29
 909 01bf 54       		.byte	84
 910 01c0 20       		.byte	32
 911 01c1 08       		.byte	8
 912 01c2 21       		.byte	33
 913 01c3 4A       		.byte	74
 914 01c4 24       		.byte	36
 915 01c5 02       		.byte	2
 916 01c6 27       		.byte	39
 917 01c7 58       		.byte	88
 918 01c8 2F       		.byte	47
 919 01c9 80       		.byte	-128
 920 01ca 32       		.byte	50
 921 01cb 81       		.byte	-127
 922 01cc 36       		.byte	54
 923 01cd 10       		.byte	16
 924 01ce 37       		.byte	55
 925 01cf 40       		.byte	64
 926 01d0 38       		.byte	56
 927 01d1 80       		.byte	-128
 928 01d2 39       		.byte	57
 929 01d3 14       		.byte	20
 930 01d4 3E       		.byte	62
 931 01d5 02       		.byte	2
 932 01d6 58       		.byte	88
ARM GAS  C:\Users\VIKTOR~1\AppData\Local\Temp\ccAP2xJU.s 			page 30


 933 01d7 02       		.byte	2
 934 01d8 59       		.byte	89
 935 01d9 50       		.byte	80
 936 01da 5B       		.byte	91
 937 01db 04       		.byte	4
 938 01dc 5C       		.byte	92
 939 01dd 40       		.byte	64
 940 01de 5D       		.byte	93
 941 01df 02       		.byte	2
 942 01e0 5F       		.byte	95
 943 01e1 18       		.byte	24
 944 01e2 66       		.byte	102
 945 01e3 08       		.byte	8
 946 01e4 67       		.byte	103
 947 01e5 04       		.byte	4
 948 01e6 69       		.byte	105
 949 01e7 14       		.byte	20
 950 01e8 6A       		.byte	106
 951 01e9 42       		.byte	66
 952 01ea 7C       		.byte	124
 953 01eb 04       		.byte	4
 954 01ec 80       		.byte	-128
 955 01ed 40       		.byte	64
 956 01ee 84       		.byte	-124
 957 01ef 04       		.byte	4
 958 01f0 85       		.byte	-123
 959 01f1 80       		.byte	-128
 960 01f2 88       		.byte	-120
 961 01f3 80       		.byte	-128
 962 01f4 89       		.byte	-119
 963 01f5 08       		.byte	8
 964 01f6 8B       		.byte	-117
 965 01f7 10       		.byte	16
 966 01f8 8E       		.byte	-114
 967 01f9 80       		.byte	-128
 968 01fa 90       		.byte	-112
 969 01fb 04       		.byte	4
 970 01fc 92       		.byte	-110
 971 01fd 24       		.byte	36
 972 01fe 93       		.byte	-109
 973 01ff 04       		.byte	4
 974 0200 95       		.byte	-107
 975 0201 80       		.byte	-128
 976 0202 98       		.byte	-104
 977 0203 02       		.byte	2
 978 0204 9A       		.byte	-102
 979 0205 4A       		.byte	74
 980 0206 9B       		.byte	-101
 981 0207 04       		.byte	4
 982 0208 9D       		.byte	-99
 983 0209 20       		.byte	32
 984 020a 9F       		.byte	-97
 985 020b 10       		.byte	16
 986 020c A0       		.byte	-96
 987 020d 80       		.byte	-128
 988 020e A2       		.byte	-94
 989 020f 10       		.byte	16
ARM GAS  C:\Users\VIKTOR~1\AppData\Local\Temp\ccAP2xJU.s 			page 31


 990 0210 A3       		.byte	-93
 991 0211 80       		.byte	-128
 992 0212 A5       		.byte	-91
 993 0213 02       		.byte	2
 994 0214 AA       		.byte	-86
 995 0215 10       		.byte	16
 996 0216 B5       		.byte	-75
 997 0217 40       		.byte	64
 998 0218 C0       		.byte	-64
 999 0219 BA       		.byte	-70
 1000 021a C2       		.byte	-62
 1001 021b CC       		.byte	-52
 1002 021c C4       		.byte	-60
 1003 021d 18       		.byte	24
 1004 021e CA       		.byte	-54
 1005 021f 80       		.byte	-128
 1006 0220 CC       		.byte	-52
 1007 0221 39       		.byte	57
 1008 0222 CE       		.byte	-50
 1009 0223 8E       		.byte	-114
 1010 0224 D6       		.byte	-42
 1011 0225 FF       		.byte	-1
 1012 0226 D8       		.byte	-40
 1013 0227 60       		.byte	96
 1014 0228 DE       		.byte	-34
 1015 0229 40       		.byte	64
 1016 022a E0       		.byte	-32
 1017 022b 08       		.byte	8
 1018 022c E2       		.byte	-30
 1019 022d 01       		.byte	1
 1020 022e E4       		.byte	-28
 1021 022f 02       		.byte	2
 1022 0230 EE       		.byte	-18
 1023 0231 04       		.byte	4
 1024 0232 00       		.byte	0
 1025 0233 40       		.byte	64
 1026 0234 07       		.byte	7
 1027 0235 04       		.byte	4
 1028 0236 61       		.byte	97
 1029 0237 80       		.byte	-128
 1030 0238 62       		.byte	98
 1031 0239 04       		.byte	4
 1032 023a 64       		.byte	100
 1033 023b 04       		.byte	4
 1034 023c 66       		.byte	102
 1035 023d 80       		.byte	-128
 1036 023e C0       		.byte	-64
 1037 023f 03       		.byte	3
 1038 0240 D6       		.byte	-42
 1039 0241 03       		.byte	3
 1040 0242 D8       		.byte	-40
 1041 0243 03       		.byte	3
 1042 0244 1A       		.byte	26
 1043 0245 20       		.byte	32
 1044 0246 83       		.byte	-125
 1045 0247 04       		.byte	4
 1046 0248 84       		.byte	-124
ARM GAS  C:\Users\VIKTOR~1\AppData\Local\Temp\ccAP2xJU.s 			page 32


 1047 0249 04       		.byte	4
 1048 024a 85       		.byte	-123
 1049 024b 80       		.byte	-128
 1050 024c 8A       		.byte	-118
 1051 024d 80       		.byte	-128
 1052 024e 8E       		.byte	-114
 1053 024f 10       		.byte	16
 1054 0250 9B       		.byte	-101
 1055 0251 04       		.byte	4
 1056 0252 9C       		.byte	-100
 1057 0253 04       		.byte	4
 1058 0254 9E       		.byte	-98
 1059 0255 80       		.byte	-128
 1060 0256 A5       		.byte	-91
 1061 0257 80       		.byte	-128
 1062 0258 A8       		.byte	-88
 1063 0259 40       		.byte	64
 1064 025a B6       		.byte	-74
 1065 025b 04       		.byte	4
 1066 025c C6       		.byte	-58
 1067 025d 08       		.byte	8
 1068 025e E2       		.byte	-30
 1069 025f 02       		.byte	2
 1070 0260 E4       		.byte	-28
 1071 0261 04       		.byte	4
 1072 0262 EC       		.byte	-20
 1073 0263 08       		.byte	8
 1074 0264 01       		.byte	1
 1075 0265 01       		.byte	1
 1076 0266 10       		.byte	16
 1077 0267 01       		.byte	1
 1078              		.type	cy_cfg_addr_table.4905, %object
 1079              		.size	cy_cfg_addr_table.4905, 32
 1080              	cy_cfg_addr_table.4905:
 1081 0268 02000F40 		.word	1074724866
 1082 026c 5F300F40 		.word	1074737247
 1083 0270 37310F40 		.word	1074737463
 1084 0274 34320F40 		.word	1074737716
 1085 0278 47330F40 		.word	1074737991
 1086 027c 09420F40 		.word	1074741769
 1087 0280 10430F40 		.word	1074742032
 1088 0284 02600F40 		.word	1074749442
 1089              		.text
 1090              	.Letext0:
 1091              		.file 2 "d:\\program files\\cypress\\psoc\\psoc creator\\4.4\\psoc creator\\import\\gnu\\arm\\5.4.
 1092              		.file 3 "Generated_Source\\PSoC4\\cytypes.h"
 1093              		.file 4 "Generated_Source\\PSoC4\\CyLib.h"