ARM GAS  C:\Users\VIKTOR~1\AppData\Local\Temp\ccenh1wr.s 			page 1


   1              		.syntax unified
   2              		.cpu cortex-m0
   3              		.fpu softvfp
   4              		.eabi_attribute 20, 1
   5              		.eabi_attribute 21, 1
   6              		.eabi_attribute 23, 3
   7              		.eabi_attribute 24, 1
   8              		.eabi_attribute 25, 1
   9              		.eabi_attribute 26, 1
  10              		.eabi_attribute 30, 1
  11              		.eabi_attribute 34, 0
  12              		.eabi_attribute 18, 4
  13              		.thumb
  14              		.syntax unified
  15              		.file	"main.c"
  16              		.text
  17              	.Ltext0:
  18              		.cfi_sections	.debug_frame
  19              		.global	__aeabi_idiv
  20              		.section	.text.timer_isr_interrupt,"ax",%progbits
  21              		.align	2
  22              		.global	timer_isr_interrupt
  23              		.code	16
  24              		.thumb_func
  25              		.type	timer_isr_interrupt, %function
  26              	timer_isr_interrupt:
  27              	.LFB34:
  28              		.file 1 "main.c"
   1:main.c        **** /* ========================================
   2:main.c        ****  *
   3:main.c        ****  * Copyright YOUR COMPANY, THE YEAR
   4:main.c        ****  * All Rights Reserved
   5:main.c        ****  * UNPUBLISHED, LICENSED SOFTWARE.
   6:main.c        ****  *
   7:main.c        ****  * CONFIDENTIAL AND PROPRIETARY INFORMATION
   8:main.c        ****  * WHICH IS THE PROPERTY OF your company.
   9:main.c        ****  *
  10:main.c        ****  * ========================================
  11:main.c        **** */
  12:main.c        **** #include "project.h"
  13:main.c        **** 
  14:main.c        **** #define PHASE_NUMBER 4
  15:main.c        **** #define PHASE_DELAY 10
  16:main.c        **** #define PHASE_1 0b1000
  17:main.c        **** #define PHASE_2 0b0100
  18:main.c        **** #define PHASE_3 0b0010
  19:main.c        **** #define PHASE_4 0b0001
  20:main.c        **** #define STOP 0b0000
  21:main.c        **** 
  22:main.c        **** #define DIR_STOP 0
  23:main.c        **** #define DIR_FORWARD 1
  24:main.c        **** #define DIR_BACKWARD 2
  25:main.c        **** 
  26:main.c        **** #define NAME_STOP     "STOP    "
  27:main.c        **** #define NAME_FORWARD  "FORWARD "
  28:main.c        **** #define NAME_BACKWARD "BACK    "
  29:main.c        **** #define NAME_PWM "PWM="
ARM GAS  C:\Users\VIKTOR~1\AppData\Local\Temp\ccenh1wr.s 			page 2


  30:main.c        **** #define NAME_SPEED "SPEED="
  31:main.c        **** #define NUMBER_CLEAR "    "
  32:main.c        **** 
  33:main.c        **** #define DISPLAY_IDX_DIRECTION 0
  34:main.c        **** #define DISPLAY_IDX_PWM 8
  35:main.c        **** #define DISPLAY_IDX_PWM_VALUE 12
  36:main.c        **** #define DISPLAY_IDX_SPEED 0
  37:main.c        **** #define DISPLAY_IDX_SPEED_VALUE 6
  38:main.c        **** 
  39:main.c        **** uint8_t motorPhases[PHASE_NUMBER] = {PHASE_1, PHASE_2, PHASE_3, PHASE_4};
  40:main.c        **** 
  41:main.c        **** uint16_t counter = 0;
  42:main.c        **** uint8_t direction = 0;
  43:main.c        **** uint8_t phaseIdx = 0;
  44:main.c        **** 
  45:main.c        **** uint8_t pwm = 100;
  46:main.c        **** uint16_t speed = 100;
  47:main.c        **** 
  48:main.c        **** inline void setupDisplay();
  49:main.c        **** 
  50:main.c        **** inline void displayDirection();
  51:main.c        **** 
  52:main.c        **** inline void displayPWM();
  53:main.c        **** 
  54:main.c        **** inline void displaySpeed();
  55:main.c        **** 
  56:main.c        **** CY_ISR(timer_isr_interrupt)
  57:main.c        **** {
  29              		.loc 1 57 0
  30              		.cfi_startproc
  31              		@ args = 0, pretend = 0, frame = 0
  32              		@ frame_needed = 0, uses_anonymous_args = 0
  33 0000 10B5     		push	{r4, lr}
  34              		.cfi_def_cfa_offset 8
  35              		.cfi_offset 4, -8
  36              		.cfi_offset 14, -4
  58:main.c        ****     if (speed > 0)
  37              		.loc 1 58 0
  38 0002 284B     		ldr	r3, .L10
  39 0004 1988     		ldrh	r1, [r3]
  40 0006 0029     		cmp	r1, #0
  41 0008 44D0     		beq	.L2
  59:main.c        ****     {
  60:main.c        ****         if (counter >= (1000 / (speed * 5)))
  42              		.loc 1 60 0
  43 000a 274B     		ldr	r3, .L10+4
  44 000c 1C88     		ldrh	r4, [r3]
  45 000e 8B00     		lsls	r3, r1, #2
  46 0010 5918     		adds	r1, r3, r1
  47 0012 FA20     		movs	r0, #250
  48 0014 8000     		lsls	r0, r0, #2
  49 0016 FFF7FEFF 		bl	__aeabi_idiv
  50              	.LVL0:
  51 001a 8442     		cmp	r4, r0
  52 001c 02DB     		blt	.L3
  61:main.c        ****         {
  62:main.c        ****             counter = 0;
ARM GAS  C:\Users\VIKTOR~1\AppData\Local\Temp\ccenh1wr.s 			page 3


  53              		.loc 1 62 0
  54 001e 0022     		movs	r2, #0
  55 0020 214B     		ldr	r3, .L10+4
  56 0022 1A80     		strh	r2, [r3]
  57              	.L3:
  63:main.c        ****         }
  64:main.c        ****         
  65:main.c        ****         if (counter == 0)
  58              		.loc 1 65 0
  59 0024 204B     		ldr	r3, .L10+4
  60 0026 1B88     		ldrh	r3, [r3]
  61 0028 002B     		cmp	r3, #0
  62 002a 2ED1     		bne	.L4
  66:main.c        ****         {
  67:main.c        ****             if (direction == DIR_FORWARD)
  63              		.loc 1 67 0
  64 002c 1E4B     		ldr	r3, .L10+4
  65 002e 9B78     		ldrb	r3, [r3, #2]
  66 0030 012B     		cmp	r3, #1
  67 0032 11D1     		bne	.L5
  68:main.c        ****             {
  69:main.c        ****                 if (phaseIdx < 0 || phaseIdx >= PHASE_NUMBER)
  68              		.loc 1 69 0
  69 0034 1C4B     		ldr	r3, .L10+4
  70 0036 DB78     		ldrb	r3, [r3, #3]
  71 0038 032B     		cmp	r3, #3
  72 003a 02D9     		bls	.L6
  70:main.c        ****                 {
  71:main.c        ****                     phaseIdx = 0;
  73              		.loc 1 71 0
  74 003c 0022     		movs	r2, #0
  75 003e 1A4B     		ldr	r3, .L10+4
  76 0040 DA70     		strb	r2, [r3, #3]
  77              	.L6:
  72:main.c        ****                 }
  73:main.c        ****                 Control_Reg_Write(motorPhases[phaseIdx]);
  78              		.loc 1 73 0
  79 0042 194C     		ldr	r4, .L10+4
  80 0044 E378     		ldrb	r3, [r4, #3]
  81 0046 174A     		ldr	r2, .L10
  82 0048 D318     		adds	r3, r2, r3
  83 004a 1879     		ldrb	r0, [r3, #4]
  84 004c FFF7FEFF 		bl	Control_Reg_Write
  85              	.LVL1:
  74:main.c        ****                 phaseIdx++;
  86              		.loc 1 74 0
  87 0050 E378     		ldrb	r3, [r4, #3]
  88 0052 0133     		adds	r3, r3, #1
  89 0054 E370     		strb	r3, [r4, #3]
  90 0056 18E0     		b	.L4
  91              	.L5:
  75:main.c        ****             }
  76:main.c        ****             else if (direction == DIR_BACKWARD)
  92              		.loc 1 76 0
  93 0058 022B     		cmp	r3, #2
  94 005a 11D1     		bne	.L7
  77:main.c        ****             {
ARM GAS  C:\Users\VIKTOR~1\AppData\Local\Temp\ccenh1wr.s 			page 4


  78:main.c        ****                 if (phaseIdx < 0 || phaseIdx >= PHASE_NUMBER)
  95              		.loc 1 78 0
  96 005c 124B     		ldr	r3, .L10+4
  97 005e DB78     		ldrb	r3, [r3, #3]
  98 0060 032B     		cmp	r3, #3
  99 0062 02D9     		bls	.L8
  79:main.c        ****                 {
  80:main.c        ****                     phaseIdx = PHASE_NUMBER - 1;
 100              		.loc 1 80 0
 101 0064 0322     		movs	r2, #3
 102 0066 104B     		ldr	r3, .L10+4
 103 0068 DA70     		strb	r2, [r3, #3]
 104              	.L8:
  81:main.c        ****                 }
  82:main.c        ****                 Control_Reg_Write(motorPhases[phaseIdx]);
 105              		.loc 1 82 0
 106 006a 0F4C     		ldr	r4, .L10+4
 107 006c E378     		ldrb	r3, [r4, #3]
 108 006e 0D4A     		ldr	r2, .L10
 109 0070 D318     		adds	r3, r2, r3
 110 0072 1879     		ldrb	r0, [r3, #4]
 111 0074 FFF7FEFF 		bl	Control_Reg_Write
 112              	.LVL2:
  83:main.c        ****                 phaseIdx--;
 113              		.loc 1 83 0
 114 0078 E378     		ldrb	r3, [r4, #3]
 115 007a 013B     		subs	r3, r3, #1
 116 007c E370     		strb	r3, [r4, #3]
 117 007e 04E0     		b	.L4
 118              	.L7:
  84:main.c        ****             }
  85:main.c        ****             else if (direction == DIR_STOP)
 119              		.loc 1 85 0
 120 0080 002B     		cmp	r3, #0
 121 0082 02D1     		bne	.L4
  86:main.c        ****             {
  87:main.c        ****                 Control_Reg_Write(STOP);
 122              		.loc 1 87 0
 123 0084 0020     		movs	r0, #0
 124 0086 FFF7FEFF 		bl	Control_Reg_Write
 125              	.LVL3:
 126              	.L4:
  88:main.c        ****             }
  89:main.c        ****         }
  90:main.c        ****         
  91:main.c        ****         counter++;
 127              		.loc 1 91 0
 128 008a 074A     		ldr	r2, .L10+4
 129 008c 1388     		ldrh	r3, [r2]
 130 008e 0133     		adds	r3, r3, #1
 131 0090 1380     		strh	r3, [r2]
 132 0092 02E0     		b	.L9
 133              	.L2:
  92:main.c        ****     }
  93:main.c        ****     else
  94:main.c        ****     {
  95:main.c        ****         Control_Reg_Write(STOP);
ARM GAS  C:\Users\VIKTOR~1\AppData\Local\Temp\ccenh1wr.s 			page 5


 134              		.loc 1 95 0
 135 0094 0020     		movs	r0, #0
 136 0096 FFF7FEFF 		bl	Control_Reg_Write
 137              	.LVL4:
 138              	.L9:
  96:main.c        ****     }
  97:main.c        ****     
  98:main.c        ****     Timer_Counter_ClearInterrupt(Timer_Counter_INTR_MASK_TC);
 139              		.loc 1 98 0
 140 009a 0120     		movs	r0, #1
 141 009c FFF7FEFF 		bl	Timer_Counter_ClearInterrupt
 142              	.LVL5:
  99:main.c        **** }
 143              		.loc 1 99 0
 144              		@ sp needed
 145 00a0 10BD     		pop	{r4, pc}
 146              	.L11:
 147 00a2 C046     		.align	2
 148              	.L10:
 149 00a4 00000000 		.word	.LANCHOR0
 150 00a8 00000000 		.word	.LANCHOR1
 151              		.cfi_endproc
 152              	.LFE34:
 153              		.size	timer_isr_interrupt, .-timer_isr_interrupt
 154              		.section	.text.button_inc_isr_interrupt,"ax",%progbits
 155              		.align	2
 156              		.global	button_inc_isr_interrupt
 157              		.code	16
 158              		.thumb_func
 159              		.type	button_inc_isr_interrupt, %function
 160              	button_inc_isr_interrupt:
 161              	.LFB35:
 100:main.c        **** 
 101:main.c        **** CY_ISR(button_inc_isr_interrupt)
 102:main.c        **** {
 162              		.loc 1 102 0
 163              		.cfi_startproc
 164              		@ args = 0, pretend = 0, frame = 0
 165              		@ frame_needed = 0, uses_anonymous_args = 0
 166 0000 10B5     		push	{r4, lr}
 167              		.cfi_def_cfa_offset 8
 168              		.cfi_offset 4, -8
 169              		.cfi_offset 14, -4
 103:main.c        ****     speed += 10;
 170              		.loc 1 103 0
 171 0002 0E4A     		ldr	r2, .L14
 172 0004 1388     		ldrh	r3, [r2]
 173 0006 0A33     		adds	r3, r3, #10
 174 0008 9BB2     		uxth	r3, r3
 175 000a 1380     		strh	r3, [r2]
 104:main.c        ****     if (speed < 0 || speed > 100)
 176              		.loc 1 104 0
 177 000c 642B     		cmp	r3, #100
 178 000e 02D9     		bls	.L13
 105:main.c        ****     {
 106:main.c        ****         speed = 100;
 179              		.loc 1 106 0
ARM GAS  C:\Users\VIKTOR~1\AppData\Local\Temp\ccenh1wr.s 			page 6


 180 0010 6422     		movs	r2, #100
 181 0012 0A4B     		ldr	r3, .L14
 182 0014 1A80     		strh	r2, [r3]
 183              	.L13:
 184              	.LBB24:
 185              	.LBB25:
 107:main.c        ****     }
 108:main.c        ****     displaySpeed();
 109:main.c        ****     
 110:main.c        ****     Button_inc_ClearInterrupt();
 111:main.c        **** }
 112:main.c        **** 
 113:main.c        **** CY_ISR(button_dec_isr_interrupt)
 114:main.c        **** {
 115:main.c        ****     speed -= 10;
 116:main.c        ****     if (speed < 0 || speed > 100)
 117:main.c        ****     {
 118:main.c        ****         speed = 0;
 119:main.c        ****     }
 120:main.c        ****     displaySpeed();
 121:main.c        ****     
 122:main.c        ****     Button_dec_ClearInterrupt();
 123:main.c        **** }
 124:main.c        **** 
 125:main.c        **** CY_ISR(button_direction_isr_interrupt)
 126:main.c        **** {
 127:main.c        ****     direction++;
 128:main.c        ****     if (direction > 2)
 129:main.c        ****     {
 130:main.c        ****         direction = 0;
 131:main.c        ****     }
 132:main.c        ****     displayDirection();
 133:main.c        ****     
 134:main.c        ****     Button_direction_ClearInterrupt();
 135:main.c        **** }
 136:main.c        **** 
 137:main.c        **** int main(void)
 138:main.c        **** {
 139:main.c        ****     CyGlobalIntEnable; /* Enable global interrupts. */
 140:main.c        ****     
 141:main.c        ****     Timer_Counter_Start();
 142:main.c        ****     PWM_Start();
 143:main.c        ****     timer_isr_StartEx(timer_isr_interrupt);
 144:main.c        ****     button_inc_isr_StartEx(button_inc_isr_interrupt);
 145:main.c        ****     button_dec_isr_StartEx(button_dec_isr_interrupt);
 146:main.c        ****     button_direction_isr_StartEx(button_direction_isr_interrupt);
 147:main.c        ****     
 148:main.c        ****     QuadDec_Start();
 149:main.c        ****     QuadDec_SetCounter(pwm);
 150:main.c        ****     
 151:main.c        ****     setupDisplay();
 152:main.c        ****     
 153:main.c        ****     for(;;)
 154:main.c        ****     {
 155:main.c        ****         /* Step motor rotation is executed in timer_isr_interrupt */
 156:main.c        ****         
 157:main.c        ****         if (QuadDec_GetCounter() > 10)
ARM GAS  C:\Users\VIKTOR~1\AppData\Local\Temp\ccenh1wr.s 			page 7


 158:main.c        ****         {
 159:main.c        ****             QuadDec_SetCounter(10);
 160:main.c        ****         }
 161:main.c        ****         if (QuadDec_GetCounter() < 2)
 162:main.c        ****         {
 163:main.c        ****             QuadDec_SetCounter(2);
 164:main.c        ****         }
 165:main.c        ****         pwm = QuadDec_GetCounter() * 10;
 166:main.c        ****         PWM_WriteCompare(pwm * PWM_PERIOD_REG / 100);
 167:main.c        ****         displayPWM();
 168:main.c        ****         
 169:main.c        ****         CyDelay(50);
 170:main.c        ****     }
 171:main.c        **** }
 172:main.c        **** 
 173:main.c        **** inline void setupDisplay()
 174:main.c        **** {
 175:main.c        ****     LCD_Char_Start();
 176:main.c        ****     LCD_Char_ClearDisplay();
 177:main.c        ****     
 178:main.c        ****     LCD_Char_Position(0, DISPLAY_IDX_PWM);
 179:main.c        ****     LCD_Char_PrintString(NAME_PWM);
 180:main.c        ****     LCD_Char_Position(1, DISPLAY_IDX_SPEED);
 181:main.c        ****     LCD_Char_PrintString(NAME_SPEED);
 182:main.c        ****     
 183:main.c        ****     displayDirection();
 184:main.c        ****     displayPWM();
 185:main.c        ****     displaySpeed();
 186:main.c        **** }
 187:main.c        **** 
 188:main.c        **** inline void displayDirection()
 189:main.c        **** {
 190:main.c        ****     LCD_Char_Position(0, DISPLAY_IDX_DIRECTION);
 191:main.c        ****     if (direction == DIR_FORWARD)
 192:main.c        ****     {
 193:main.c        ****         LCD_Char_PrintString(NAME_FORWARD);
 194:main.c        ****     }
 195:main.c        ****     else if (direction == DIR_BACKWARD)
 196:main.c        ****     {
 197:main.c        ****         LCD_Char_PrintString(NAME_BACKWARD);
 198:main.c        ****     }
 199:main.c        ****     else if (direction == DIR_STOP)
 200:main.c        ****     {
 201:main.c        ****         LCD_Char_PrintString(NAME_STOP);
 202:main.c        ****     }
 203:main.c        **** }
 204:main.c        **** 
 205:main.c        **** inline void displayPWM()
 206:main.c        **** {
 207:main.c        ****     LCD_Char_Position(0, DISPLAY_IDX_PWM_VALUE);
 208:main.c        ****     LCD_Char_PrintString(NUMBER_CLEAR);
 209:main.c        ****     LCD_Char_Position(0, DISPLAY_IDX_PWM_VALUE);
 210:main.c        ****     LCD_Char_PrintDecUint16(pwm);
 211:main.c        ****     LCD_Char_PutChar('%');
 212:main.c        **** }
 213:main.c        **** 
 214:main.c        **** inline void displaySpeed()
ARM GAS  C:\Users\VIKTOR~1\AppData\Local\Temp\ccenh1wr.s 			page 8


 215:main.c        **** {
 216:main.c        ****     LCD_Char_Position(1, DISPLAY_IDX_SPEED_VALUE);
 186              		.loc 1 216 0
 187 0016 0621     		movs	r1, #6
 188 0018 0120     		movs	r0, #1
 189 001a FFF7FEFF 		bl	LCD_Char_Position
 190              	.LVL6:
 217:main.c        ****     LCD_Char_PrintString(NUMBER_CLEAR);
 191              		.loc 1 217 0
 192 001e 0848     		ldr	r0, .L14+4
 193 0020 FFF7FEFF 		bl	LCD_Char_PrintString
 194              	.LVL7:
 218:main.c        ****     LCD_Char_Position(1, DISPLAY_IDX_SPEED_VALUE);
 195              		.loc 1 218 0
 196 0024 0621     		movs	r1, #6
 197 0026 0120     		movs	r0, #1
 198 0028 FFF7FEFF 		bl	LCD_Char_Position
 199              	.LVL8:
 219:main.c        ****     LCD_Char_PrintDecUint16(speed);
 200              		.loc 1 219 0
 201 002c 034B     		ldr	r3, .L14
 202 002e 1888     		ldrh	r0, [r3]
 203 0030 FFF7FEFF 		bl	LCD_Char_PrintU32Number
 204              	.LVL9:
 205              	.LBE25:
 206              	.LBE24:
 110:main.c        **** }
 207              		.loc 1 110 0
 208 0034 FFF7FEFF 		bl	Button_inc_ClearInterrupt
 209              	.LVL10:
 111:main.c        **** 
 210              		.loc 1 111 0
 211              		@ sp needed
 212 0038 10BD     		pop	{r4, pc}
 213              	.L15:
 214 003a C046     		.align	2
 215              	.L14:
 216 003c 00000000 		.word	.LANCHOR0
 217 0040 00000000 		.word	.LC3
 218              		.cfi_endproc
 219              	.LFE35:
 220              		.size	button_inc_isr_interrupt, .-button_inc_isr_interrupt
 221              		.section	.text.button_dec_isr_interrupt,"ax",%progbits
 222              		.align	2
 223              		.global	button_dec_isr_interrupt
 224              		.code	16
 225              		.thumb_func
 226              		.type	button_dec_isr_interrupt, %function
 227              	button_dec_isr_interrupt:
 228              	.LFB36:
 114:main.c        ****     speed -= 10;
 229              		.loc 1 114 0
 230              		.cfi_startproc
 231              		@ args = 0, pretend = 0, frame = 0
 232              		@ frame_needed = 0, uses_anonymous_args = 0
 233 0000 10B5     		push	{r4, lr}
 234              		.cfi_def_cfa_offset 8
ARM GAS  C:\Users\VIKTOR~1\AppData\Local\Temp\ccenh1wr.s 			page 9


 235              		.cfi_offset 4, -8
 236              		.cfi_offset 14, -4
 115:main.c        ****     if (speed < 0 || speed > 100)
 237              		.loc 1 115 0
 238 0002 0E4A     		ldr	r2, .L18
 239 0004 1388     		ldrh	r3, [r2]
 240 0006 0A3B     		subs	r3, r3, #10
 241 0008 9BB2     		uxth	r3, r3
 242 000a 1380     		strh	r3, [r2]
 116:main.c        ****     {
 243              		.loc 1 116 0
 244 000c 642B     		cmp	r3, #100
 245 000e 02D9     		bls	.L17
 118:main.c        ****     }
 246              		.loc 1 118 0
 247 0010 0022     		movs	r2, #0
 248 0012 0A4B     		ldr	r3, .L18
 249 0014 1A80     		strh	r2, [r3]
 250              	.L17:
 251              	.LBB26:
 252              	.LBB27:
 216:main.c        ****     LCD_Char_PrintString(NUMBER_CLEAR);
 253              		.loc 1 216 0
 254 0016 0621     		movs	r1, #6
 255 0018 0120     		movs	r0, #1
 256 001a FFF7FEFF 		bl	LCD_Char_Position
 257              	.LVL11:
 217:main.c        ****     LCD_Char_Position(1, DISPLAY_IDX_SPEED_VALUE);
 258              		.loc 1 217 0
 259 001e 0848     		ldr	r0, .L18+4
 260 0020 FFF7FEFF 		bl	LCD_Char_PrintString
 261              	.LVL12:
 218:main.c        ****     LCD_Char_PrintDecUint16(speed);
 262              		.loc 1 218 0
 263 0024 0621     		movs	r1, #6
 264 0026 0120     		movs	r0, #1
 265 0028 FFF7FEFF 		bl	LCD_Char_Position
 266              	.LVL13:
 267              		.loc 1 219 0
 268 002c 034B     		ldr	r3, .L18
 269 002e 1888     		ldrh	r0, [r3]
 270 0030 FFF7FEFF 		bl	LCD_Char_PrintU32Number
 271              	.LVL14:
 272              	.LBE27:
 273              	.LBE26:
 122:main.c        **** }
 274              		.loc 1 122 0
 275 0034 FFF7FEFF 		bl	Button_dec_ClearInterrupt
 276              	.LVL15:
 123:main.c        **** 
 277              		.loc 1 123 0
 278              		@ sp needed
 279 0038 10BD     		pop	{r4, pc}
 280              	.L19:
 281 003a C046     		.align	2
 282              	.L18:
 283 003c 00000000 		.word	.LANCHOR0
ARM GAS  C:\Users\VIKTOR~1\AppData\Local\Temp\ccenh1wr.s 			page 10


 284 0040 00000000 		.word	.LC3
 285              		.cfi_endproc
 286              	.LFE36:
 287              		.size	button_dec_isr_interrupt, .-button_dec_isr_interrupt
 288              		.section	.text.button_direction_isr_interrupt,"ax",%progbits
 289              		.align	2
 290              		.global	button_direction_isr_interrupt
 291              		.code	16
 292              		.thumb_func
 293              		.type	button_direction_isr_interrupt, %function
 294              	button_direction_isr_interrupt:
 295              	.LFB37:
 126:main.c        ****     direction++;
 296              		.loc 1 126 0
 297              		.cfi_startproc
 298              		@ args = 0, pretend = 0, frame = 0
 299              		@ frame_needed = 0, uses_anonymous_args = 0
 300 0000 10B5     		push	{r4, lr}
 301              		.cfi_def_cfa_offset 8
 302              		.cfi_offset 4, -8
 303              		.cfi_offset 14, -4
 127:main.c        ****     if (direction > 2)
 304              		.loc 1 127 0
 305 0002 124A     		ldr	r2, .L25
 306 0004 9378     		ldrb	r3, [r2, #2]
 307 0006 0133     		adds	r3, r3, #1
 308 0008 DBB2     		uxtb	r3, r3
 309 000a 9370     		strb	r3, [r2, #2]
 128:main.c        ****     {
 310              		.loc 1 128 0
 311 000c 022B     		cmp	r3, #2
 312 000e 02D9     		bls	.L21
 130:main.c        ****     }
 313              		.loc 1 130 0
 314 0010 0022     		movs	r2, #0
 315 0012 0E4B     		ldr	r3, .L25
 316 0014 9A70     		strb	r2, [r3, #2]
 317              	.L21:
 318              	.LBB28:
 319              	.LBB29:
 190:main.c        ****     if (direction == DIR_FORWARD)
 320              		.loc 1 190 0
 321 0016 0021     		movs	r1, #0
 322 0018 0020     		movs	r0, #0
 323 001a FFF7FEFF 		bl	LCD_Char_Position
 324              	.LVL16:
 191:main.c        ****     {
 325              		.loc 1 191 0
 326 001e 0B4B     		ldr	r3, .L25
 327 0020 9B78     		ldrb	r3, [r3, #2]
 328 0022 012B     		cmp	r3, #1
 329 0024 03D1     		bne	.L22
 193:main.c        ****     }
 330              		.loc 1 193 0
 331 0026 0A48     		ldr	r0, .L25+4
 332 0028 FFF7FEFF 		bl	LCD_Char_PrintString
 333              	.LVL17:
ARM GAS  C:\Users\VIKTOR~1\AppData\Local\Temp\ccenh1wr.s 			page 11


 334 002c 0AE0     		b	.L23
 335              	.L22:
 195:main.c        ****     {
 336              		.loc 1 195 0
 337 002e 022B     		cmp	r3, #2
 338 0030 03D1     		bne	.L24
 197:main.c        ****     }
 339              		.loc 1 197 0
 340 0032 0848     		ldr	r0, .L25+8
 341 0034 FFF7FEFF 		bl	LCD_Char_PrintString
 342              	.LVL18:
 343 0038 04E0     		b	.L23
 344              	.L24:
 199:main.c        ****     {
 345              		.loc 1 199 0
 346 003a 002B     		cmp	r3, #0
 347 003c 02D1     		bne	.L23
 201:main.c        ****     }
 348              		.loc 1 201 0
 349 003e 0648     		ldr	r0, .L25+12
 350 0040 FFF7FEFF 		bl	LCD_Char_PrintString
 351              	.LVL19:
 352              	.L23:
 353              	.LBE29:
 354              	.LBE28:
 134:main.c        **** }
 355              		.loc 1 134 0
 356 0044 FFF7FEFF 		bl	Button_direction_ClearInterrupt
 357              	.LVL20:
 135:main.c        **** 
 358              		.loc 1 135 0
 359              		@ sp needed
 360 0048 10BD     		pop	{r4, pc}
 361              	.L26:
 362 004a C046     		.align	2
 363              	.L25:
 364 004c 00000000 		.word	.LANCHOR1
 365 0050 08000000 		.word	.LC8
 366 0054 14000000 		.word	.LC10
 367 0058 20000000 		.word	.LC12
 368              		.cfi_endproc
 369              	.LFE37:
 370              		.size	button_direction_isr_interrupt, .-button_direction_isr_interrupt
 371              		.global	__aeabi_uidiv
 372              		.section	.text.main,"ax",%progbits
 373              		.align	2
 374              		.global	main
 375              		.code	16
 376              		.thumb_func
 377              		.type	main, %function
 378              	main:
 379              	.LFB38:
 138:main.c        ****     CyGlobalIntEnable; /* Enable global interrupts. */
 380              		.loc 1 138 0
 381              		.cfi_startproc
 382              		@ Volatile: function does not return.
 383              		@ args = 0, pretend = 0, frame = 0
ARM GAS  C:\Users\VIKTOR~1\AppData\Local\Temp\ccenh1wr.s 			page 12


 384              		@ frame_needed = 0, uses_anonymous_args = 0
 385 0000 70B5     		push	{r4, r5, r6, lr}
 386              		.cfi_def_cfa_offset 16
 387              		.cfi_offset 4, -16
 388              		.cfi_offset 5, -12
 389              		.cfi_offset 6, -8
 390              		.cfi_offset 14, -4
 139:main.c        ****     
 391              		.loc 1 139 0
 392              		.syntax divided
 393              	@ 139 "main.c" 1
 394 0002 62B6     		CPSIE   i
 395              	@ 0 "" 2
 141:main.c        ****     PWM_Start();
 396              		.loc 1 141 0
 397              		.thumb
 398              		.syntax unified
 399 0004 FFF7FEFF 		bl	Timer_Counter_Start
 400              	.LVL21:
 142:main.c        ****     timer_isr_StartEx(timer_isr_interrupt);
 401              		.loc 1 142 0
 402 0008 FFF7FEFF 		bl	PWM_Start
 403              	.LVL22:
 143:main.c        ****     button_inc_isr_StartEx(button_inc_isr_interrupt);
 404              		.loc 1 143 0
 405 000c 4848     		ldr	r0, .L34
 406 000e FFF7FEFF 		bl	timer_isr_StartEx
 407              	.LVL23:
 144:main.c        ****     button_dec_isr_StartEx(button_dec_isr_interrupt);
 408              		.loc 1 144 0
 409 0012 4848     		ldr	r0, .L34+4
 410 0014 FFF7FEFF 		bl	button_inc_isr_StartEx
 411              	.LVL24:
 145:main.c        ****     button_direction_isr_StartEx(button_direction_isr_interrupt);
 412              		.loc 1 145 0
 413 0018 4748     		ldr	r0, .L34+8
 414 001a FFF7FEFF 		bl	button_dec_isr_StartEx
 415              	.LVL25:
 146:main.c        ****     
 416              		.loc 1 146 0
 417 001e 4748     		ldr	r0, .L34+12
 418 0020 FFF7FEFF 		bl	button_direction_isr_StartEx
 419              	.LVL26:
 148:main.c        ****     QuadDec_SetCounter(pwm);
 420              		.loc 1 148 0
 421 0024 FFF7FEFF 		bl	QuadDec_Start
 422              	.LVL27:
 149:main.c        ****     
 423              		.loc 1 149 0
 424 0028 454B     		ldr	r3, .L34+16
 425 002a 0820     		movs	r0, #8
 426 002c 1856     		ldrsb	r0, [r3, r0]
 427 002e FFF7FEFF 		bl	QuadDec_SetCounter
 428              	.LVL28:
 429              	.LBB30:
 430              	.LBB31:
 175:main.c        ****     LCD_Char_ClearDisplay();
ARM GAS  C:\Users\VIKTOR~1\AppData\Local\Temp\ccenh1wr.s 			page 13


 431              		.loc 1 175 0
 432 0032 FFF7FEFF 		bl	LCD_Char_Start
 433              	.LVL29:
 176:main.c        ****     
 434              		.loc 1 176 0
 435 0036 0120     		movs	r0, #1
 436 0038 FFF7FEFF 		bl	LCD_Char_WriteControl
 437              	.LVL30:
 178:main.c        ****     LCD_Char_PrintString(NAME_PWM);
 438              		.loc 1 178 0
 439 003c 0821     		movs	r1, #8
 440 003e 0020     		movs	r0, #0
 441 0040 FFF7FEFF 		bl	LCD_Char_Position
 442              	.LVL31:
 179:main.c        ****     LCD_Char_Position(1, DISPLAY_IDX_SPEED);
 443              		.loc 1 179 0
 444 0044 3F48     		ldr	r0, .L34+20
 445 0046 FFF7FEFF 		bl	LCD_Char_PrintString
 446              	.LVL32:
 180:main.c        ****     LCD_Char_PrintString(NAME_SPEED);
 447              		.loc 1 180 0
 448 004a 0021     		movs	r1, #0
 449 004c 0120     		movs	r0, #1
 450 004e FFF7FEFF 		bl	LCD_Char_Position
 451              	.LVL33:
 181:main.c        ****     
 452              		.loc 1 181 0
 453 0052 3D48     		ldr	r0, .L34+24
 454 0054 FFF7FEFF 		bl	LCD_Char_PrintString
 455              	.LVL34:
 456              	.LBB32:
 457              	.LBB33:
 190:main.c        ****     if (direction == DIR_FORWARD)
 458              		.loc 1 190 0
 459 0058 0021     		movs	r1, #0
 460 005a 0020     		movs	r0, #0
 461 005c FFF7FEFF 		bl	LCD_Char_Position
 462              	.LVL35:
 191:main.c        ****     {
 463              		.loc 1 191 0
 464 0060 3A4B     		ldr	r3, .L34+28
 465 0062 9B78     		ldrb	r3, [r3, #2]
 466 0064 012B     		cmp	r3, #1
 467 0066 03D1     		bne	.L28
 193:main.c        ****     }
 468              		.loc 1 193 0
 469 0068 3948     		ldr	r0, .L34+32
 470 006a FFF7FEFF 		bl	LCD_Char_PrintString
 471              	.LVL36:
 472 006e 0AE0     		b	.L29
 473              	.L28:
 195:main.c        ****     {
 474              		.loc 1 195 0
 475 0070 022B     		cmp	r3, #2
 476 0072 03D1     		bne	.L30
 197:main.c        ****     }
 477              		.loc 1 197 0
ARM GAS  C:\Users\VIKTOR~1\AppData\Local\Temp\ccenh1wr.s 			page 14


 478 0074 3748     		ldr	r0, .L34+36
 479 0076 FFF7FEFF 		bl	LCD_Char_PrintString
 480              	.LVL37:
 481 007a 04E0     		b	.L29
 482              	.L30:
 199:main.c        ****     {
 483              		.loc 1 199 0
 484 007c 002B     		cmp	r3, #0
 485 007e 02D1     		bne	.L29
 201:main.c        ****     }
 486              		.loc 1 201 0
 487 0080 3548     		ldr	r0, .L34+40
 488 0082 FFF7FEFF 		bl	LCD_Char_PrintString
 489              	.LVL38:
 490              	.L29:
 491              	.LBE33:
 492              	.LBE32:
 493              	.LBB34:
 494              	.LBB35:
 207:main.c        ****     LCD_Char_PrintString(NUMBER_CLEAR);
 495              		.loc 1 207 0
 496 0086 0C21     		movs	r1, #12
 497 0088 0020     		movs	r0, #0
 498 008a FFF7FEFF 		bl	LCD_Char_Position
 499              	.LVL39:
 208:main.c        ****     LCD_Char_Position(0, DISPLAY_IDX_PWM_VALUE);
 500              		.loc 1 208 0
 501 008e 334D     		ldr	r5, .L34+44
 502 0090 2800     		movs	r0, r5
 503 0092 FFF7FEFF 		bl	LCD_Char_PrintString
 504              	.LVL40:
 209:main.c        ****     LCD_Char_PrintDecUint16(pwm);
 505              		.loc 1 209 0
 506 0096 0C21     		movs	r1, #12
 507 0098 0020     		movs	r0, #0
 508 009a FFF7FEFF 		bl	LCD_Char_Position
 509              	.LVL41:
 210:main.c        ****     LCD_Char_PutChar('%');
 510              		.loc 1 210 0
 511 009e 284C     		ldr	r4, .L34+16
 512 00a0 207A     		ldrb	r0, [r4, #8]
 513 00a2 FFF7FEFF 		bl	LCD_Char_PrintU32Number
 514              	.LVL42:
 211:main.c        **** }
 515              		.loc 1 211 0
 516 00a6 2520     		movs	r0, #37
 517 00a8 FFF7FEFF 		bl	LCD_Char_PutChar
 518              	.LVL43:
 519              	.LBE35:
 520              	.LBE34:
 521              	.LBB36:
 522              	.LBB37:
 216:main.c        ****     LCD_Char_PrintString(NUMBER_CLEAR);
 523              		.loc 1 216 0
 524 00ac 0621     		movs	r1, #6
 525 00ae 0120     		movs	r0, #1
 526 00b0 FFF7FEFF 		bl	LCD_Char_Position
ARM GAS  C:\Users\VIKTOR~1\AppData\Local\Temp\ccenh1wr.s 			page 15


 527              	.LVL44:
 217:main.c        ****     LCD_Char_Position(1, DISPLAY_IDX_SPEED_VALUE);
 528              		.loc 1 217 0
 529 00b4 2800     		movs	r0, r5
 530 00b6 FFF7FEFF 		bl	LCD_Char_PrintString
 531              	.LVL45:
 218:main.c        ****     LCD_Char_PrintDecUint16(speed);
 532              		.loc 1 218 0
 533 00ba 0621     		movs	r1, #6
 534 00bc 0120     		movs	r0, #1
 535 00be FFF7FEFF 		bl	LCD_Char_Position
 536              	.LVL46:
 537              		.loc 1 219 0
 538 00c2 2088     		ldrh	r0, [r4]
 539 00c4 FFF7FEFF 		bl	LCD_Char_PrintU32Number
 540              	.LVL47:
 541              	.L33:
 542              	.LBE37:
 543              	.LBE36:
 544              	.LBE31:
 545              	.LBE30:
 157:main.c        ****         {
 546              		.loc 1 157 0
 547 00c8 FFF7FEFF 		bl	QuadDec_GetCounter
 548              	.LVL48:
 549 00cc 0A28     		cmp	r0, #10
 550 00ce 02DD     		ble	.L31
 159:main.c        ****         }
 551              		.loc 1 159 0
 552 00d0 0A20     		movs	r0, #10
 553 00d2 FFF7FEFF 		bl	QuadDec_SetCounter
 554              	.LVL49:
 555              	.L31:
 161:main.c        ****         {
 556              		.loc 1 161 0
 557 00d6 FFF7FEFF 		bl	QuadDec_GetCounter
 558              	.LVL50:
 559 00da 0128     		cmp	r0, #1
 560 00dc 02DC     		bgt	.L32
 163:main.c        ****         }
 561              		.loc 1 163 0
 562 00de 0220     		movs	r0, #2
 563 00e0 FFF7FEFF 		bl	QuadDec_SetCounter
 564              	.LVL51:
 565              	.L32:
 165:main.c        ****         PWM_WriteCompare(pwm * PWM_PERIOD_REG / 100);
 566              		.loc 1 165 0
 567 00e4 FFF7FEFF 		bl	QuadDec_GetCounter
 568              	.LVL52:
 569 00e8 8300     		lsls	r3, r0, #2
 570 00ea C018     		adds	r0, r0, r3
 571 00ec 4300     		lsls	r3, r0, #1
 572 00ee DBB2     		uxtb	r3, r3
 573 00f0 134C     		ldr	r4, .L34+16
 574 00f2 2372     		strb	r3, [r4, #8]
 166:main.c        ****         displayPWM();
 575              		.loc 1 166 0
ARM GAS  C:\Users\VIKTOR~1\AppData\Local\Temp\ccenh1wr.s 			page 16


 576 00f4 1A4A     		ldr	r2, .L34+48
 577 00f6 1068     		ldr	r0, [r2]
 578 00f8 5843     		muls	r0, r3
 579 00fa 6421     		movs	r1, #100
 580 00fc FFF7FEFF 		bl	__aeabi_uidiv
 581              	.LVL53:
 582 0100 FFF7FEFF 		bl	PWM_WriteCompare
 583              	.LVL54:
 584              	.LBB38:
 585              	.LBB39:
 207:main.c        ****     LCD_Char_PrintString(NUMBER_CLEAR);
 586              		.loc 1 207 0
 587 0104 0C21     		movs	r1, #12
 588 0106 0020     		movs	r0, #0
 589 0108 FFF7FEFF 		bl	LCD_Char_Position
 590              	.LVL55:
 208:main.c        ****     LCD_Char_Position(0, DISPLAY_IDX_PWM_VALUE);
 591              		.loc 1 208 0
 592 010c 1348     		ldr	r0, .L34+44
 593 010e FFF7FEFF 		bl	LCD_Char_PrintString
 594              	.LVL56:
 209:main.c        ****     LCD_Char_PrintDecUint16(pwm);
 595              		.loc 1 209 0
 596 0112 0C21     		movs	r1, #12
 597 0114 0020     		movs	r0, #0
 598 0116 FFF7FEFF 		bl	LCD_Char_Position
 599              	.LVL57:
 210:main.c        ****     LCD_Char_PutChar('%');
 600              		.loc 1 210 0
 601 011a 207A     		ldrb	r0, [r4, #8]
 602 011c FFF7FEFF 		bl	LCD_Char_PrintU32Number
 603              	.LVL58:
 211:main.c        **** }
 604              		.loc 1 211 0
 605 0120 2520     		movs	r0, #37
 606 0122 FFF7FEFF 		bl	LCD_Char_PutChar
 607              	.LVL59:
 608              	.LBE39:
 609              	.LBE38:
 169:main.c        ****     }
 610              		.loc 1 169 0
 611 0126 3220     		movs	r0, #50
 612 0128 FFF7FEFF 		bl	CyDelay
 613              	.LVL60:
 170:main.c        **** }
 614              		.loc 1 170 0
 615 012c CCE7     		b	.L33
 616              	.L35:
 617 012e C046     		.align	2
 618              	.L34:
 619 0130 00000000 		.word	timer_isr_interrupt
 620 0134 00000000 		.word	button_inc_isr_interrupt
 621 0138 00000000 		.word	button_dec_isr_interrupt
 622 013c 00000000 		.word	button_direction_isr_interrupt
 623 0140 00000000 		.word	.LANCHOR0
 624 0144 2C000000 		.word	.LC19
 625 0148 34000000 		.word	.LC21
ARM GAS  C:\Users\VIKTOR~1\AppData\Local\Temp\ccenh1wr.s 			page 17


 626 014c 00000000 		.word	.LANCHOR1
 627 0150 08000000 		.word	.LC8
 628 0154 14000000 		.word	.LC10
 629 0158 20000000 		.word	.LC12
 630 015c 00000000 		.word	.LC3
 631 0160 14012040 		.word	1075839252
 632              		.cfi_endproc
 633              	.LFE38:
 634              		.size	main, .-main
 635              		.global	speed
 636              		.global	pwm
 637              		.global	phaseIdx
 638              		.global	direction
 639              		.global	counter
 640              		.global	motorPhases
 641              		.data
 642              		.align	2
 643              		.set	.LANCHOR0,. + 0
 644              		.type	speed, %object
 645              		.size	speed, 2
 646              	speed:
 647 0000 6400     		.short	100
 648 0002 0000     		.space	2
 649              		.type	motorPhases, %object
 650              		.size	motorPhases, 4
 651              	motorPhases:
 652 0004 08       		.byte	8
 653 0005 04       		.byte	4
 654 0006 02       		.byte	2
 655 0007 01       		.byte	1
 656              		.type	pwm, %object
 657              		.size	pwm, 1
 658              	pwm:
 659 0008 64       		.byte	100
 660              		.section	.rodata.str1.4,"aMS",%progbits,1
 661              		.align	2
 662              	.LC3:
 663 0000 20202020 		.ascii	"    \000"
 663      00
 664 0005 000000   		.space	3
 665              	.LC8:
 666 0008 464F5257 		.ascii	"FORWARD \000"
 666      41524420 
 666      00
 667 0011 000000   		.space	3
 668              	.LC10:
 669 0014 4241434B 		.ascii	"BACK    \000"
 669      20202020 
 669      00
 670 001d 000000   		.space	3
 671              	.LC12:
 672 0020 53544F50 		.ascii	"STOP    \000"
 672      20202020 
 672      00
 673 0029 000000   		.space	3
 674              	.LC19:
 675 002c 50574D3D 		.ascii	"PWM=\000"
ARM GAS  C:\Users\VIKTOR~1\AppData\Local\Temp\ccenh1wr.s 			page 18


 675      00
 676 0031 000000   		.space	3
 677              	.LC21:
 678 0034 53504545 		.ascii	"SPEED=\000"
 678      443D00
 679              		.bss
 680              		.align	1
 681              		.set	.LANCHOR1,. + 0
 682              		.type	counter, %object
 683              		.size	counter, 2
 684              	counter:
 685 0000 0000     		.space	2
 686              		.type	direction, %object
 687              		.size	direction, 1
 688              	direction:
 689 0002 00       		.space	1
 690              		.type	phaseIdx, %object
 691              		.size	phaseIdx, 1
 692              	phaseIdx:
 693 0003 00       		.space	1
 694              		.text
 695              	.Letext0:
 696              		.file 2 "d:\\program files\\cypress\\psoc\\psoc creator\\4.4\\psoc creator\\import\\gnu\\arm\\5.4.
 697              		.file 3 "d:\\program files\\cypress\\psoc\\psoc creator\\4.4\\psoc creator\\import\\gnu\\arm\\5.4.
 698              		.file 4 "Generated_Source\\PSoC4/cytypes.h"
 699              		.file 5 "Generated_Source\\PSoC4/Control_Reg.h"
 700              		.file 6 "Generated_Source\\PSoC4/Timer_Counter.h"
 701              		.file 7 "Generated_Source\\PSoC4/LCD_Char.h"
 702              		.file 8 "Generated_Source\\PSoC4/Button_inc.h"
 703              		.file 9 "Generated_Source\\PSoC4/Button_dec.h"
 704              		.file 10 "Generated_Source\\PSoC4/Button_direction.h"
 705              		.file 11 "Generated_Source\\PSoC4/PWM.h"
 706              		.file 12 "Generated_Source\\PSoC4/timer_isr.h"
 707              		.file 13 "Generated_Source\\PSoC4/button_inc_isr.h"
 708              		.file 14 "Generated_Source\\PSoC4/button_dec_isr.h"
 709              		.file 15 "Generated_Source\\PSoC4/button_direction_isr.h"
 710              		.file 16 "Generated_Source\\PSoC4/QuadDec.h"
 711              		.file 17 "Generated_Source\\PSoC4/CyLib.h"