ARM GAS  C:\Users\VIKTOR~1\AppData\Local\Temp\ccHJX6LJ.s 			page 1


   1              		.syntax unified
   2              		.cpu cortex-m0
   3              		.fpu softvfp
   4              		.eabi_attribute 20, 1
   5              		.eabi_attribute 21, 1
   6              		.eabi_attribute 23, 3
   7              		.eabi_attribute 24, 1
   8              		.eabi_attribute 25, 1
   9              		.eabi_attribute 26, 1
  10              		.eabi_attribute 30, 1
  11              		.eabi_attribute 34, 0
  12              		.eabi_attribute 18, 4
  13              		.thumb
  14              		.syntax unified
  15              		.file	"main.c"
  16              		.text
  17              	.Ltext0:
  18              		.cfi_sections	.debug_frame
  19              		.global	__aeabi_i2f
  20              		.global	__aeabi_fdiv
  21              		.global	__aeabi_fmul
  22              		.global	__aeabi_fsub
  23              		.global	__aeabi_f2iz
  24              		.section	.text.getJoystickAngle,"ax",%progbits
  25              		.align	2
  26              		.global	getJoystickAngle
  27              		.code	16
  28              		.thumb_func
  29              		.type	getJoystickAngle, %function
  30              	getJoystickAngle:
  31              	.LFB35:
  32              		.file 1 "main.c"
   1:main.c        **** #include "project.h"
   2:main.c        **** 
   3:main.c        **** #define RED 0b001
   4:main.c        **** #define GREEN 0b100
   5:main.c        **** #define NO_COLOR 0b000
   6:main.c        **** #define CLEAR_LINE "             "
   7:main.c        **** 
   8:main.c        **** #define X_AXIS 0
   9:main.c        **** #define Y_AXIS 1
  10:main.c        **** 
  11:main.c        **** int8_t angleX = 0;
  12:main.c        **** int8_t angleY = 0;
  13:main.c        **** int8_t newAngle = 0;
  14:main.c        **** 
  15:main.c        **** uint8_t color = NO_COLOR;
  16:main.c        **** 
  17:main.c        **** void printAngle(const uint8_t row, const uint8_t col, const int angle);
  18:main.c        **** 
  19:main.c        **** int8_t getJoystickAngle(const uint8_t axis);
  20:main.c        **** 
  21:main.c        **** int main(void)
  22:main.c        **** {
  23:main.c        ****     CyGlobalIntEnable; /* Enable global interrupts. */
  24:main.c        ****     
  25:main.c        ****     ADC_SAR_Seq_Start();
ARM GAS  C:\Users\VIKTOR~1\AppData\Local\Temp\ccHJX6LJ.s 			page 2


  26:main.c        ****     ADC_SAR_Seq_StartConvert();
  27:main.c        ****     
  28:main.c        ****     LCD_Char_Start();
  29:main.c        ****     LCD_Char_ClearDisplay();
  30:main.c        ****     
  31:main.c        ****     LCD_Char_Position(0, 0);
  32:main.c        ****     LCD_Char_PrintString("X: ");
  33:main.c        ****     LCD_Char_Position(1, 0);
  34:main.c        ****     LCD_Char_PrintString("Y: ");
  35:main.c        ****     
  36:main.c        ****     for(;;)
  37:main.c        ****     {
  38:main.c        ****         newAngle = getJoystickAngle(X_AXIS);
  39:main.c        ****         if (angleX != newAngle)
  40:main.c        ****         {
  41:main.c        ****             angleX = newAngle;
  42:main.c        ****             color |= RED;
  43:main.c        ****             Control_Reg_Write(color);
  44:main.c        ****             
  45:main.c        ****             printAngle(0, 3, angleX);
  46:main.c        ****         }
  47:main.c        ****         else
  48:main.c        ****         {
  49:main.c        ****             color &= !RED;
  50:main.c        ****         }
  51:main.c        ****         
  52:main.c        ****         newAngle = getJoystickAngle(Y_AXIS);
  53:main.c        ****         if (angleY != newAngle)
  54:main.c        ****         {
  55:main.c        ****             angleY = newAngle;
  56:main.c        ****             color |= GREEN;
  57:main.c        ****             
  58:main.c        ****             printAngle(1, 3, angleY);
  59:main.c        ****         }
  60:main.c        ****         else
  61:main.c        ****         {
  62:main.c        ****             color &= !GREEN;
  63:main.c        ****         }
  64:main.c        ****         
  65:main.c        ****         Control_Reg_Write(color);
  66:main.c        ****         
  67:main.c        ****         ADC_SAR_Seq_Sleep();
  68:main.c        ****         CyDelay(100);
  69:main.c        ****         ADC_SAR_Seq_Wakeup();
  70:main.c        ****     }
  71:main.c        **** }
  72:main.c        **** 
  73:main.c        **** int8_t getJoystickAngle(const uint8_t axis)
  74:main.c        **** {
  33              		.loc 1 74 0
  34              		.cfi_startproc
  35              		@ args = 0, pretend = 0, frame = 0
  36              		@ frame_needed = 0, uses_anonymous_args = 0
  37              	.LVL0:
  38 0000 10B5     		push	{r4, lr}
  39              		.cfi_def_cfa_offset 8
  40              		.cfi_offset 4, -8
ARM GAS  C:\Users\VIKTOR~1\AppData\Local\Temp\ccHJX6LJ.s 			page 3


  41              		.cfi_offset 14, -4
  75:main.c        ****     return ((float)(ADC_SAR_Seq_GetResult16(axis) & 0x7FF) / 0x7FF) * 90 - 45;
  42              		.loc 1 75 0
  43 0002 FFF7FEFF 		bl	ADC_SAR_Seq_GetResult16
  44              	.LVL1:
  45 0006 4005     		lsls	r0, r0, #21
  46 0008 400D     		lsrs	r0, r0, #21
  47 000a FFF7FEFF 		bl	__aeabi_i2f
  48              	.LVL2:
  49 000e 0649     		ldr	r1, .L2
  50 0010 FFF7FEFF 		bl	__aeabi_fdiv
  51              	.LVL3:
  52 0014 0549     		ldr	r1, .L2+4
  53 0016 FFF7FEFF 		bl	__aeabi_fmul
  54              	.LVL4:
  55 001a 0549     		ldr	r1, .L2+8
  56 001c FFF7FEFF 		bl	__aeabi_fsub
  57              	.LVL5:
  58 0020 FFF7FEFF 		bl	__aeabi_f2iz
  59              	.LVL6:
  60 0024 40B2     		sxtb	r0, r0
  76:main.c        **** }
  61              		.loc 1 76 0
  62              		@ sp needed
  63 0026 10BD     		pop	{r4, pc}
  64              	.L3:
  65              		.align	2
  66              	.L2:
  67 0028 00E0FF44 		.word	1157619712
  68 002c 0000B442 		.word	1119092736
  69 0030 00003442 		.word	1110704128
  70              		.cfi_endproc
  71              	.LFE35:
  72              		.size	getJoystickAngle, .-getJoystickAngle
  73              		.section	.text.printAngle,"ax",%progbits
  74              		.align	2
  75              		.global	printAngle
  76              		.code	16
  77              		.thumb_func
  78              		.type	printAngle, %function
  79              	printAngle:
  80              	.LFB36:
  77:main.c        **** 
  78:main.c        **** void printAngle(const uint8_t row, const uint8_t col, const int angle)
  79:main.c        **** {
  81              		.loc 1 79 0
  82              		.cfi_startproc
  83              		@ args = 0, pretend = 0, frame = 0
  84              		@ frame_needed = 0, uses_anonymous_args = 0
  85              	.LVL7:
  86 0000 70B5     		push	{r4, r5, r6, lr}
  87              		.cfi_def_cfa_offset 16
  88              		.cfi_offset 4, -16
  89              		.cfi_offset 5, -12
  90              		.cfi_offset 6, -8
  91              		.cfi_offset 14, -4
  92 0002 0600     		movs	r6, r0
ARM GAS  C:\Users\VIKTOR~1\AppData\Local\Temp\ccHJX6LJ.s 			page 4


  93 0004 0D00     		movs	r5, r1
  94 0006 1400     		movs	r4, r2
  80:main.c        ****     LCD_Char_Position(row, col);
  95              		.loc 1 80 0
  96 0008 FFF7FEFF 		bl	LCD_Char_Position
  97              	.LVL8:
  81:main.c        ****     LCD_Char_PrintString(CLEAR_LINE);
  98              		.loc 1 81 0
  99 000c 0D48     		ldr	r0, .L7
 100 000e FFF7FEFF 		bl	LCD_Char_PrintString
 101              	.LVL9:
  82:main.c        ****     LCD_Char_Position(row, col);
 102              		.loc 1 82 0
 103 0012 2900     		movs	r1, r5
 104 0014 3000     		movs	r0, r6
 105 0016 FFF7FEFF 		bl	LCD_Char_Position
 106              	.LVL10:
  83:main.c        ****     
  84:main.c        ****     if (angle < 0)
 107              		.loc 1 84 0
 108 001a 002C     		cmp	r4, #0
 109 001c 0CDA     		bge	.L5
  85:main.c        ****     {
  86:main.c        ****         LCD_Char_PutChar('-');
 110              		.loc 1 86 0
 111 001e 2D20     		movs	r0, #45
 112 0020 FFF7FEFF 		bl	LCD_Char_PutChar
 113              	.LVL11:
  87:main.c        ****         LCD_Char_Position(row, col + 1);
 114              		.loc 1 87 0
 115 0024 0135     		adds	r5, r5, #1
 116 0026 E9B2     		uxtb	r1, r5
 117 0028 3000     		movs	r0, r6
 118 002a FFF7FEFF 		bl	LCD_Char_Position
 119              	.LVL12:
  88:main.c        ****         LCD_Char_PrintDecUint16(0 - angle);
 120              		.loc 1 88 0
 121 002e 6042     		rsbs	r0, r4, #0
 122 0030 80B2     		uxth	r0, r0
 123 0032 FFF7FEFF 		bl	LCD_Char_PrintU32Number
 124              	.LVL13:
 125 0036 03E0     		b	.L4
 126              	.L5:
  89:main.c        ****     }
  90:main.c        ****     else
  91:main.c        ****     {
  92:main.c        ****         LCD_Char_PrintDecUint16(angle);
 127              		.loc 1 92 0
 128 0038 2004     		lsls	r0, r4, #16
 129 003a 000C     		lsrs	r0, r0, #16
 130 003c FFF7FEFF 		bl	LCD_Char_PrintU32Number
 131              	.LVL14:
 132              	.L4:
  93:main.c        ****     }
  94:main.c        **** }
 133              		.loc 1 94 0
 134              		@ sp needed
ARM GAS  C:\Users\VIKTOR~1\AppData\Local\Temp\ccHJX6LJ.s 			page 5


 135              	.LVL15:
 136 0040 70BD     		pop	{r4, r5, r6, pc}
 137              	.L8:
 138 0042 C046     		.align	2
 139              	.L7:
 140 0044 00000000 		.word	.LC0
 141              		.cfi_endproc
 142              	.LFE36:
 143              		.size	printAngle, .-printAngle
 144              		.section	.text.main,"ax",%progbits
 145              		.align	2
 146              		.global	main
 147              		.code	16
 148              		.thumb_func
 149              		.type	main, %function
 150              	main:
 151              	.LFB34:
  22:main.c        ****     CyGlobalIntEnable; /* Enable global interrupts. */
 152              		.loc 1 22 0
 153              		.cfi_startproc
 154              		@ Volatile: function does not return.
 155              		@ args = 0, pretend = 0, frame = 0
 156              		@ frame_needed = 0, uses_anonymous_args = 0
 157 0000 10B5     		push	{r4, lr}
 158              		.cfi_def_cfa_offset 8
 159              		.cfi_offset 4, -8
 160              		.cfi_offset 14, -4
  23:main.c        ****     
 161              		.loc 1 23 0
 162              		.syntax divided
 163              	@ 23 "main.c" 1
 164 0002 62B6     		CPSIE   i
 165              	@ 0 "" 2
  25:main.c        ****     ADC_SAR_Seq_StartConvert();
 166              		.loc 1 25 0
 167              		.thumb
 168              		.syntax unified
 169 0004 FFF7FEFF 		bl	ADC_SAR_Seq_Start
 170              	.LVL16:
  26:main.c        ****     
 171              		.loc 1 26 0
 172 0008 FFF7FEFF 		bl	ADC_SAR_Seq_StartConvert
 173              	.LVL17:
  28:main.c        ****     LCD_Char_ClearDisplay();
 174              		.loc 1 28 0
 175 000c FFF7FEFF 		bl	LCD_Char_Start
 176              	.LVL18:
  29:main.c        ****     
 177              		.loc 1 29 0
 178 0010 0120     		movs	r0, #1
 179 0012 FFF7FEFF 		bl	LCD_Char_WriteControl
 180              	.LVL19:
  31:main.c        ****     LCD_Char_PrintString("X: ");
 181              		.loc 1 31 0
 182 0016 0021     		movs	r1, #0
 183 0018 0020     		movs	r0, #0
 184 001a FFF7FEFF 		bl	LCD_Char_Position
ARM GAS  C:\Users\VIKTOR~1\AppData\Local\Temp\ccHJX6LJ.s 			page 6


 185              	.LVL20:
  32:main.c        ****     LCD_Char_Position(1, 0);
 186              		.loc 1 32 0
 187 001e 2548     		ldr	r0, .L15
 188 0020 FFF7FEFF 		bl	LCD_Char_PrintString
 189              	.LVL21:
  33:main.c        ****     LCD_Char_PrintString("Y: ");
 190              		.loc 1 33 0
 191 0024 0021     		movs	r1, #0
 192 0026 0120     		movs	r0, #1
 193 0028 FFF7FEFF 		bl	LCD_Char_Position
 194              	.LVL22:
  34:main.c        ****     
 195              		.loc 1 34 0
 196 002c 2248     		ldr	r0, .L15+4
 197 002e FFF7FEFF 		bl	LCD_Char_PrintString
 198              	.LVL23:
 199              	.L14:
  38:main.c        ****         if (angleX != newAngle)
 200              		.loc 1 38 0
 201 0032 0020     		movs	r0, #0
 202 0034 FFF7FEFF 		bl	getJoystickAngle
 203              	.LVL24:
 204 0038 204B     		ldr	r3, .L15+8
 205 003a 1870     		strb	r0, [r3]
  39:main.c        ****         {
 206              		.loc 1 39 0
 207 003c 5B78     		ldrb	r3, [r3, #1]
 208 003e 5BB2     		sxtb	r3, r3
 209 0040 9842     		cmp	r0, r3
 210 0042 0FD0     		beq	.L10
  41:main.c        ****             color |= RED;
 211              		.loc 1 41 0
 212 0044 1D4C     		ldr	r4, .L15+8
 213 0046 6070     		strb	r0, [r4, #1]
  42:main.c        ****             Control_Reg_Write(color);
 214              		.loc 1 42 0
 215 0048 A078     		ldrb	r0, [r4, #2]
 216 004a 0123     		movs	r3, #1
 217 004c 1843     		orrs	r0, r3
 218 004e C0B2     		uxtb	r0, r0
 219 0050 A070     		strb	r0, [r4, #2]
  43:main.c        ****             
 220              		.loc 1 43 0
 221 0052 FFF7FEFF 		bl	Control_Reg_Write
 222              	.LVL25:
  45:main.c        ****         }
 223              		.loc 1 45 0
 224 0056 0122     		movs	r2, #1
 225 0058 A256     		ldrsb	r2, [r4, r2]
 226 005a 0321     		movs	r1, #3
 227 005c 0020     		movs	r0, #0
 228 005e FFF7FEFF 		bl	printAngle
 229              	.LVL26:
 230 0062 02E0     		b	.L11
 231              	.L10:
  49:main.c        ****         }
ARM GAS  C:\Users\VIKTOR~1\AppData\Local\Temp\ccHJX6LJ.s 			page 7


 232              		.loc 1 49 0
 233 0064 0022     		movs	r2, #0
 234 0066 154B     		ldr	r3, .L15+8
 235 0068 9A70     		strb	r2, [r3, #2]
 236              	.L11:
  52:main.c        ****         if (angleY != newAngle)
 237              		.loc 1 52 0
 238 006a 0120     		movs	r0, #1
 239 006c FFF7FEFF 		bl	getJoystickAngle
 240              	.LVL27:
 241 0070 124B     		ldr	r3, .L15+8
 242 0072 1870     		strb	r0, [r3]
  53:main.c        ****         {
 243              		.loc 1 53 0
 244 0074 DB78     		ldrb	r3, [r3, #3]
 245 0076 5BB2     		sxtb	r3, r3
 246 0078 9842     		cmp	r0, r3
 247 007a 0BD0     		beq	.L12
  55:main.c        ****             color |= GREEN;
 248              		.loc 1 55 0
 249 007c 0F4B     		ldr	r3, .L15+8
 250 007e D870     		strb	r0, [r3, #3]
  56:main.c        ****             
 251              		.loc 1 56 0
 252 0080 9978     		ldrb	r1, [r3, #2]
 253 0082 0422     		movs	r2, #4
 254 0084 0A43     		orrs	r2, r1
 255 0086 9A70     		strb	r2, [r3, #2]
  58:main.c        ****         }
 256              		.loc 1 58 0
 257 0088 0200     		movs	r2, r0
 258 008a 0321     		movs	r1, #3
 259 008c 0120     		movs	r0, #1
 260 008e FFF7FEFF 		bl	printAngle
 261              	.LVL28:
 262 0092 02E0     		b	.L13
 263              	.L12:
  62:main.c        ****         }
 264              		.loc 1 62 0
 265 0094 0022     		movs	r2, #0
 266 0096 094B     		ldr	r3, .L15+8
 267 0098 9A70     		strb	r2, [r3, #2]
 268              	.L13:
  65:main.c        ****         
 269              		.loc 1 65 0
 270 009a 084B     		ldr	r3, .L15+8
 271 009c 9878     		ldrb	r0, [r3, #2]
 272 009e FFF7FEFF 		bl	Control_Reg_Write
 273              	.LVL29:
  67:main.c        ****         CyDelay(100);
 274              		.loc 1 67 0
 275 00a2 FFF7FEFF 		bl	ADC_SAR_Seq_Sleep
 276              	.LVL30:
  68:main.c        ****         ADC_SAR_Seq_Wakeup();
 277              		.loc 1 68 0
 278 00a6 6420     		movs	r0, #100
 279 00a8 FFF7FEFF 		bl	CyDelay
ARM GAS  C:\Users\VIKTOR~1\AppData\Local\Temp\ccHJX6LJ.s 			page 8


 280              	.LVL31:
  69:main.c        ****     }
 281              		.loc 1 69 0
 282 00ac FFF7FEFF 		bl	ADC_SAR_Seq_Wakeup
 283              	.LVL32:
  70:main.c        **** }
 284              		.loc 1 70 0
 285 00b0 BFE7     		b	.L14
 286              	.L16:
 287 00b2 C046     		.align	2
 288              	.L15:
 289 00b4 10000000 		.word	.LC2
 290 00b8 14000000 		.word	.LC4
 291 00bc 00000000 		.word	.LANCHOR0
 292              		.cfi_endproc
 293              	.LFE34:
 294              		.size	main, .-main
 295              		.global	color
 296              		.global	newAngle
 297              		.global	angleY
 298              		.global	angleX
 299              		.section	.rodata.str1.4,"aMS",%progbits,1
 300              		.align	2
 301              	.LC0:
 302 0000 20202020 		.ascii	"             \000"
 302      20202020 
 302      20202020 
 302      2000
 303 000e 0000     		.space	2
 304              	.LC2:
 305 0010 583A2000 		.ascii	"X: \000"
 306              	.LC4:
 307 0014 593A2000 		.ascii	"Y: \000"
 308              		.bss
 309              		.set	.LANCHOR0,. + 0
 310              		.type	newAngle, %object
 311              		.size	newAngle, 1
 312              	newAngle:
 313 0000 00       		.space	1
 314              		.type	angleX, %object
 315              		.size	angleX, 1
 316              	angleX:
 317 0001 00       		.space	1
 318              		.type	color, %object
 319              		.size	color, 1
 320              	color:
 321 0002 00       		.space	1
 322              		.type	angleY, %object
 323              		.size	angleY, 1
 324              	angleY:
 325 0003 00       		.space	1
 326              		.text
 327              	.Letext0:
 328              		.file 2 "d:\\program files\\cypress\\psoc\\psoc creator\\4.4\\psoc creator\\import\\gnu\\arm\\5.4.
 329              		.file 3 "d:\\program files\\cypress\\psoc\\psoc creator\\4.4\\psoc creator\\import\\gnu\\arm\\5.4.
 330              		.file 4 "Generated_Source\\PSoC4/cytypes.h"
 331              		.file 5 "Generated_Source\\PSoC4/ADC_SAR_Seq.h"
ARM GAS  C:\Users\VIKTOR~1\AppData\Local\Temp\ccHJX6LJ.s 			page 9


 332              		.file 6 "Generated_Source\\PSoC4/LCD_Char.h"
 333              		.file 7 "Generated_Source\\PSoC4/Control_Reg.h"
 334              		.file 8 "Generated_Source\\PSoC4/CyLib.h"